
ctarget:     file format elf64-x86-64


Disassembly of section .init:

0000000000400b58 <_init>:
  400b58:	48 83 ec 08          	sub    $0x8,%rsp
  400b5c:	e8 5b 02 00 00       	callq  400dbc <call_gmon_start>
  400b61:	e8 ea 02 00 00       	callq  400e50 <frame_dummy>
  400b66:	e8 95 1d 00 00       	callq  402900 <__do_global_ctors_aux>
  400b6b:	48 83 c4 08          	add    $0x8,%rsp
  400b6f:	c3                   	retq   

Disassembly of section .plt:

0000000000400b70 <printf@plt-0x10>:
  400b70:	ff 35 f2 2e 20 00    	pushq  0x202ef2(%rip)        # 603a68 <_GLOBAL_OFFSET_TABLE_+0x8>
  400b76:	ff 25 f4 2e 20 00    	jmpq   *0x202ef4(%rip)        # 603a70 <_GLOBAL_OFFSET_TABLE_+0x10>
  400b7c:	0f 1f 40 00          	nopl   0x0(%rax)

0000000000400b80 <printf@plt>:
  400b80:	ff 25 f2 2e 20 00    	jmpq   *0x202ef2(%rip)        # 603a78 <_GLOBAL_OFFSET_TABLE_+0x18>
  400b86:	68 00 00 00 00       	pushq  $0x0
  400b8b:	e9 e0 ff ff ff       	jmpq   400b70 <_init+0x18>

0000000000400b90 <memset@plt>:
  400b90:	ff 25 ea 2e 20 00    	jmpq   *0x202eea(%rip)        # 603a80 <_GLOBAL_OFFSET_TABLE_+0x20>
  400b96:	68 01 00 00 00       	pushq  $0x1
  400b9b:	e9 d0 ff ff ff       	jmpq   400b70 <_init+0x18>

0000000000400ba0 <close@plt>:
  400ba0:	ff 25 e2 2e 20 00    	jmpq   *0x202ee2(%rip)        # 603a88 <_GLOBAL_OFFSET_TABLE_+0x28>
  400ba6:	68 02 00 00 00       	pushq  $0x2
  400bab:	e9 c0 ff ff ff       	jmpq   400b70 <_init+0x18>

0000000000400bb0 <gethostbyname@plt>:
  400bb0:	ff 25 da 2e 20 00    	jmpq   *0x202eda(%rip)        # 603a90 <_GLOBAL_OFFSET_TABLE_+0x30>
  400bb6:	68 03 00 00 00       	pushq  $0x3
  400bbb:	e9 b0 ff ff ff       	jmpq   400b70 <_init+0x18>

0000000000400bc0 <puts@plt>:
  400bc0:	ff 25 d2 2e 20 00    	jmpq   *0x202ed2(%rip)        # 603a98 <_GLOBAL_OFFSET_TABLE_+0x38>
  400bc6:	68 04 00 00 00       	pushq  $0x4
  400bcb:	e9 a0 ff ff ff       	jmpq   400b70 <_init+0x18>

0000000000400bd0 <__isoc99_sscanf@plt>:
  400bd0:	ff 25 ca 2e 20 00    	jmpq   *0x202eca(%rip)        # 603aa0 <_GLOBAL_OFFSET_TABLE_+0x40>
  400bd6:	68 05 00 00 00       	pushq  $0x5
  400bdb:	e9 90 ff ff ff       	jmpq   400b70 <_init+0x18>

0000000000400be0 <exit@plt>:
  400be0:	ff 25 c2 2e 20 00    	jmpq   *0x202ec2(%rip)        # 603aa8 <_GLOBAL_OFFSET_TABLE_+0x48>
  400be6:	68 06 00 00 00       	pushq  $0x6
  400beb:	e9 80 ff ff ff       	jmpq   400b70 <_init+0x18>

0000000000400bf0 <strcasecmp@plt>:
  400bf0:	ff 25 ba 2e 20 00    	jmpq   *0x202eba(%rip)        # 603ab0 <_GLOBAL_OFFSET_TABLE_+0x50>
  400bf6:	68 07 00 00 00       	pushq  $0x7
  400bfb:	e9 70 ff ff ff       	jmpq   400b70 <_init+0x18>

0000000000400c00 <getopt@plt>:
  400c00:	ff 25 b2 2e 20 00    	jmpq   *0x202eb2(%rip)        # 603ab8 <_GLOBAL_OFFSET_TABLE_+0x58>
  400c06:	68 08 00 00 00       	pushq  $0x8
  400c0b:	e9 60 ff ff ff       	jmpq   400b70 <_init+0x18>

0000000000400c10 <read@plt>:
  400c10:	ff 25 aa 2e 20 00    	jmpq   *0x202eaa(%rip)        # 603ac0 <_GLOBAL_OFFSET_TABLE_+0x60>
  400c16:	68 09 00 00 00       	pushq  $0x9
  400c1b:	e9 50 ff ff ff       	jmpq   400b70 <_init+0x18>

0000000000400c20 <strncmp@plt>:
  400c20:	ff 25 a2 2e 20 00    	jmpq   *0x202ea2(%rip)        # 603ac8 <_GLOBAL_OFFSET_TABLE_+0x68>
  400c26:	68 0a 00 00 00       	pushq  $0xa
  400c2b:	e9 40 ff ff ff       	jmpq   400b70 <_init+0x18>

0000000000400c30 <fopen@plt>:
  400c30:	ff 25 9a 2e 20 00    	jmpq   *0x202e9a(%rip)        # 603ad0 <_GLOBAL_OFFSET_TABLE_+0x70>
  400c36:	68 0b 00 00 00       	pushq  $0xb
  400c3b:	e9 30 ff ff ff       	jmpq   400b70 <_init+0x18>

0000000000400c40 <__libc_start_main@plt>:
  400c40:	ff 25 92 2e 20 00    	jmpq   *0x202e92(%rip)        # 603ad8 <_GLOBAL_OFFSET_TABLE_+0x78>
  400c46:	68 0c 00 00 00       	pushq  $0xc
  400c4b:	e9 20 ff ff ff       	jmpq   400b70 <_init+0x18>

0000000000400c50 <srandom@plt>:
  400c50:	ff 25 8a 2e 20 00    	jmpq   *0x202e8a(%rip)        # 603ae0 <_GLOBAL_OFFSET_TABLE_+0x80>
  400c56:	68 0d 00 00 00       	pushq  $0xd
  400c5b:	e9 10 ff ff ff       	jmpq   400b70 <_init+0x18>

0000000000400c60 <_IO_getc@plt>:
  400c60:	ff 25 82 2e 20 00    	jmpq   *0x202e82(%rip)        # 603ae8 <_GLOBAL_OFFSET_TABLE_+0x88>
  400c66:	68 0e 00 00 00       	pushq  $0xe
  400c6b:	e9 00 ff ff ff       	jmpq   400b70 <_init+0x18>

0000000000400c70 <bcopy@plt>:
  400c70:	ff 25 7a 2e 20 00    	jmpq   *0x202e7a(%rip)        # 603af0 <_GLOBAL_OFFSET_TABLE_+0x90>
  400c76:	68 0f 00 00 00       	pushq  $0xf
  400c7b:	e9 f0 fe ff ff       	jmpq   400b70 <_init+0x18>

0000000000400c80 <sprintf@plt>:
  400c80:	ff 25 72 2e 20 00    	jmpq   *0x202e72(%rip)        # 603af8 <_GLOBAL_OFFSET_TABLE_+0x98>
  400c86:	68 10 00 00 00       	pushq  $0x10
  400c8b:	e9 e0 fe ff ff       	jmpq   400b70 <_init+0x18>

0000000000400c90 <strtol@plt>:
  400c90:	ff 25 6a 2e 20 00    	jmpq   *0x202e6a(%rip)        # 603b00 <_GLOBAL_OFFSET_TABLE_+0xa0>
  400c96:	68 11 00 00 00       	pushq  $0x11
  400c9b:	e9 d0 fe ff ff       	jmpq   400b70 <_init+0x18>

0000000000400ca0 <connect@plt>:
  400ca0:	ff 25 62 2e 20 00    	jmpq   *0x202e62(%rip)        # 603b08 <_GLOBAL_OFFSET_TABLE_+0xa8>
  400ca6:	68 12 00 00 00       	pushq  $0x12
  400cab:	e9 c0 fe ff ff       	jmpq   400b70 <_init+0x18>

0000000000400cb0 <gethostname@plt>:
  400cb0:	ff 25 5a 2e 20 00    	jmpq   *0x202e5a(%rip)        # 603b10 <_GLOBAL_OFFSET_TABLE_+0xb0>
  400cb6:	68 13 00 00 00       	pushq  $0x13
  400cbb:	e9 b0 fe ff ff       	jmpq   400b70 <_init+0x18>

0000000000400cc0 <memcpy@plt>:
  400cc0:	ff 25 52 2e 20 00    	jmpq   *0x202e52(%rip)        # 603b18 <_GLOBAL_OFFSET_TABLE_+0xb8>
  400cc6:	68 14 00 00 00       	pushq  $0x14
  400ccb:	e9 a0 fe ff ff       	jmpq   400b70 <_init+0x18>

0000000000400cd0 <signal@plt>:
  400cd0:	ff 25 4a 2e 20 00    	jmpq   *0x202e4a(%rip)        # 603b20 <_GLOBAL_OFFSET_TABLE_+0xc0>
  400cd6:	68 15 00 00 00       	pushq  $0x15
  400cdb:	e9 90 fe ff ff       	jmpq   400b70 <_init+0x18>

0000000000400ce0 <socket@plt>:
  400ce0:	ff 25 42 2e 20 00    	jmpq   *0x202e42(%rip)        # 603b28 <_GLOBAL_OFFSET_TABLE_+0xc8>
  400ce6:	68 16 00 00 00       	pushq  $0x16
  400ceb:	e9 80 fe ff ff       	jmpq   400b70 <_init+0x18>

0000000000400cf0 <alarm@plt>:
  400cf0:	ff 25 3a 2e 20 00    	jmpq   *0x202e3a(%rip)        # 603b30 <_GLOBAL_OFFSET_TABLE_+0xd0>
  400cf6:	68 17 00 00 00       	pushq  $0x17
  400cfb:	e9 70 fe ff ff       	jmpq   400b70 <_init+0x18>

0000000000400d00 <__errno_location@plt>:
  400d00:	ff 25 32 2e 20 00    	jmpq   *0x202e32(%rip)        # 603b38 <_GLOBAL_OFFSET_TABLE_+0xd8>
  400d06:	68 18 00 00 00       	pushq  $0x18
  400d0b:	e9 60 fe ff ff       	jmpq   400b70 <_init+0x18>

0000000000400d10 <strcpy@plt>:
  400d10:	ff 25 2a 2e 20 00    	jmpq   *0x202e2a(%rip)        # 603b40 <_GLOBAL_OFFSET_TABLE_+0xe0>
  400d16:	68 19 00 00 00       	pushq  $0x19
  400d1b:	e9 50 fe ff ff       	jmpq   400b70 <_init+0x18>

0000000000400d20 <munmap@plt>:
  400d20:	ff 25 22 2e 20 00    	jmpq   *0x202e22(%rip)        # 603b48 <_GLOBAL_OFFSET_TABLE_+0xe8>
  400d26:	68 1a 00 00 00       	pushq  $0x1a
  400d2b:	e9 40 fe ff ff       	jmpq   400b70 <_init+0x18>

0000000000400d30 <random@plt>:
  400d30:	ff 25 1a 2e 20 00    	jmpq   *0x202e1a(%rip)        # 603b50 <_GLOBAL_OFFSET_TABLE_+0xf0>
  400d36:	68 1b 00 00 00       	pushq  $0x1b
  400d3b:	e9 30 fe ff ff       	jmpq   400b70 <_init+0x18>

0000000000400d40 <fprintf@plt>:
  400d40:	ff 25 12 2e 20 00    	jmpq   *0x202e12(%rip)        # 603b58 <_GLOBAL_OFFSET_TABLE_+0xf8>
  400d46:	68 1c 00 00 00       	pushq  $0x1c
  400d4b:	e9 20 fe ff ff       	jmpq   400b70 <_init+0x18>

0000000000400d50 <write@plt>:
  400d50:	ff 25 0a 2e 20 00    	jmpq   *0x202e0a(%rip)        # 603b60 <_GLOBAL_OFFSET_TABLE_+0x100>
  400d56:	68 1d 00 00 00       	pushq  $0x1d
  400d5b:	e9 10 fe ff ff       	jmpq   400b70 <_init+0x18>

0000000000400d60 <strtoul@plt>:
  400d60:	ff 25 02 2e 20 00    	jmpq   *0x202e02(%rip)        # 603b68 <_GLOBAL_OFFSET_TABLE_+0x108>
  400d66:	68 1e 00 00 00       	pushq  $0x1e
  400d6b:	e9 00 fe ff ff       	jmpq   400b70 <_init+0x18>

0000000000400d70 <mmap@plt>:
  400d70:	ff 25 fa 2d 20 00    	jmpq   *0x202dfa(%rip)        # 603b70 <_GLOBAL_OFFSET_TABLE_+0x110>
  400d76:	68 1f 00 00 00       	pushq  $0x1f
  400d7b:	e9 f0 fd ff ff       	jmpq   400b70 <_init+0x18>

0000000000400d80 <time@plt>:
  400d80:	ff 25 f2 2d 20 00    	jmpq   *0x202df2(%rip)        # 603b78 <_GLOBAL_OFFSET_TABLE_+0x118>
  400d86:	68 20 00 00 00       	pushq  $0x20
  400d8b:	e9 e0 fd ff ff       	jmpq   400b70 <_init+0x18>

Disassembly of section .text:

0000000000400d90 <_start>:
  400d90:	31 ed                	xor    %ebp,%ebp
  400d92:	49 89 d1             	mov    %rdx,%r9
  400d95:	5e                   	pop    %rsi
  400d96:	48 89 e2             	mov    %rsp,%rdx
  400d99:	48 83 e4 f0          	and    $0xfffffffffffffff0,%rsp
  400d9d:	50                   	push   %rax
  400d9e:	54                   	push   %rsp
  400d9f:	49 c7 c0 60 28 40 00 	mov    $0x402860,%r8
  400da6:	48 c7 c1 70 28 40 00 	mov    $0x402870,%rcx
  400dad:	48 c7 c7 51 10 40 00 	mov    $0x401051,%rdi
  400db4:	e8 87 fe ff ff       	callq  400c40 <__libc_start_main@plt>
  400db9:	f4                   	hlt    
  400dba:	90                   	nop
  400dbb:	90                   	nop

0000000000400dbc <call_gmon_start>:
  400dbc:	48 83 ec 08          	sub    $0x8,%rsp
  400dc0:	48 8b 05 91 2c 20 00 	mov    0x202c91(%rip),%rax        # 603a58 <_DYNAMIC+0x190>
  400dc7:	48 85 c0             	test   %rax,%rax
  400dca:	74 02                	je     400dce <call_gmon_start+0x12>
  400dcc:	ff d0                	callq  *%rax
  400dce:	48 83 c4 08          	add    $0x8,%rsp
  400dd2:	c3                   	retq   
  400dd3:	90                   	nop
  400dd4:	90                   	nop
  400dd5:	90                   	nop
  400dd6:	90                   	nop
  400dd7:	90                   	nop
  400dd8:	90                   	nop
  400dd9:	90                   	nop
  400dda:	90                   	nop
  400ddb:	90                   	nop
  400ddc:	90                   	nop
  400ddd:	90                   	nop
  400dde:	90                   	nop
  400ddf:	90                   	nop

0000000000400de0 <__do_global_dtors_aux>:
  400de0:	55                   	push   %rbp
  400de1:	48 89 e5             	mov    %rsp,%rbp
  400de4:	53                   	push   %rbx
  400de5:	48 83 ec 08          	sub    $0x8,%rsp
  400de9:	80 3d 60 31 20 00 00 	cmpb   $0x0,0x203160(%rip)        # 603f50 <completed.6364>
  400df0:	75 4b                	jne    400e3d <__do_global_dtors_aux+0x5d>
  400df2:	bb b8 38 60 00       	mov    $0x6038b8,%ebx
  400df7:	48 8b 05 5a 31 20 00 	mov    0x20315a(%rip),%rax        # 603f58 <dtor_idx.6366>
  400dfe:	48 81 eb b0 38 60 00 	sub    $0x6038b0,%rbx
  400e05:	48 c1 fb 03          	sar    $0x3,%rbx
  400e09:	48 83 eb 01          	sub    $0x1,%rbx
  400e0d:	48 39 d8             	cmp    %rbx,%rax
  400e10:	73 24                	jae    400e36 <__do_global_dtors_aux+0x56>
  400e12:	66 0f 1f 44 00 00    	nopw   0x0(%rax,%rax,1)
  400e18:	48 83 c0 01          	add    $0x1,%rax
  400e1c:	48 89 05 35 31 20 00 	mov    %rax,0x203135(%rip)        # 603f58 <dtor_idx.6366>
  400e23:	ff 14 c5 b0 38 60 00 	callq  *0x6038b0(,%rax,8)
  400e2a:	48 8b 05 27 31 20 00 	mov    0x203127(%rip),%rax        # 603f58 <dtor_idx.6366>
  400e31:	48 39 d8             	cmp    %rbx,%rax
  400e34:	72 e2                	jb     400e18 <__do_global_dtors_aux+0x38>
  400e36:	c6 05 13 31 20 00 01 	movb   $0x1,0x203113(%rip)        # 603f50 <completed.6364>
  400e3d:	48 83 c4 08          	add    $0x8,%rsp
  400e41:	5b                   	pop    %rbx
  400e42:	c9                   	leaveq 
  400e43:	c3                   	retq   
  400e44:	66 66 66 2e 0f 1f 84 	data32 data32 nopw %cs:0x0(%rax,%rax,1)
  400e4b:	00 00 00 00 00 

0000000000400e50 <frame_dummy>:
  400e50:	48 83 3d 68 2a 20 00 	cmpq   $0x0,0x202a68(%rip)        # 6038c0 <__JCR_END__>
  400e57:	00 
  400e58:	55                   	push   %rbp
  400e59:	48 89 e5             	mov    %rsp,%rbp
  400e5c:	74 12                	je     400e70 <frame_dummy+0x20>
  400e5e:	b8 00 00 00 00       	mov    $0x0,%eax
  400e63:	48 85 c0             	test   %rax,%rax
  400e66:	74 08                	je     400e70 <frame_dummy+0x20>
  400e68:	bf c0 38 60 00       	mov    $0x6038c0,%edi
  400e6d:	c9                   	leaveq 
  400e6e:	ff e0                	jmpq   *%rax
  400e70:	c9                   	leaveq 
  400e71:	c3                   	retq   
  400e72:	90                   	nop
  400e73:	90                   	nop
  400e74:	90                   	nop
  400e75:	90                   	nop
  400e76:	90                   	nop
  400e77:	90                   	nop
  400e78:	90                   	nop
  400e79:	90                   	nop
  400e7a:	90                   	nop
  400e7b:	90                   	nop
  400e7c:	90                   	nop
  400e7d:	90                   	nop
  400e7e:	90                   	nop
  400e7f:	90                   	nop

0000000000400e80 <usage>:
  400e80:	48 83 ec 08          	sub    $0x8,%rsp
  400e84:	48 89 fe             	mov    %rdi,%rsi
  400e87:	83 3d d2 30 20 00 00 	cmpl   $0x0,0x2030d2(%rip)        # 603f60 <is_checker>
  400e8e:	74 39                	je     400ec9 <usage+0x49>
  400e90:	bf 60 29 40 00       	mov    $0x402960,%edi
  400e95:	b8 00 00 00 00       	mov    $0x0,%eax
  400e9a:	e8 e1 fc ff ff       	callq  400b80 <printf@plt>
  400e9f:	bf 98 29 40 00       	mov    $0x402998,%edi
  400ea4:	e8 17 fd ff ff       	callq  400bc0 <puts@plt>
  400ea9:	bf 10 2b 40 00       	mov    $0x402b10,%edi
  400eae:	e8 0d fd ff ff       	callq  400bc0 <puts@plt>
  400eb3:	bf c0 29 40 00       	mov    $0x4029c0,%edi
  400eb8:	e8 03 fd ff ff       	callq  400bc0 <puts@plt>
  400ebd:	bf 2a 2b 40 00       	mov    $0x402b2a,%edi
  400ec2:	e8 f9 fc ff ff       	callq  400bc0 <puts@plt>
  400ec7:	eb 2d                	jmp    400ef6 <usage+0x76>
  400ec9:	bf 46 2b 40 00       	mov    $0x402b46,%edi
  400ece:	b8 00 00 00 00       	mov    $0x0,%eax
  400ed3:	e8 a8 fc ff ff       	callq  400b80 <printf@plt>
  400ed8:	bf e8 29 40 00       	mov    $0x4029e8,%edi
  400edd:	e8 de fc ff ff       	callq  400bc0 <puts@plt>
  400ee2:	bf 10 2a 40 00       	mov    $0x402a10,%edi
  400ee7:	e8 d4 fc ff ff       	callq  400bc0 <puts@plt>
  400eec:	bf 64 2b 40 00       	mov    $0x402b64,%edi
  400ef1:	e8 ca fc ff ff       	callq  400bc0 <puts@plt>
  400ef6:	bf 00 00 00 00       	mov    $0x0,%edi
  400efb:	e8 e0 fc ff ff       	callq  400be0 <exit@plt>

0000000000400f00 <initialize_target>:
  400f00:	55                   	push   %rbp
  400f01:	53                   	push   %rbx
  400f02:	48 81 ec 08 21 00 00 	sub    $0x2108,%rsp
  400f09:	89 f3                	mov    %esi,%ebx
  400f0b:	89 3d 5f 30 20 00    	mov    %edi,0x20305f(%rip)        # 603f70 <check_level>
  400f11:	8b 3d d1 2f 20 00    	mov    0x202fd1(%rip),%edi        # 603ee8 <target_id>
  400f17:	e8 1e 19 00 00       	callq  40283a <gencookie>
  400f1c:	89 05 42 30 20 00    	mov    %eax,0x203042(%rip)        # 603f64 <cookie>
  400f22:	89 c7                	mov    %eax,%edi
  400f24:	e8 11 19 00 00       	callq  40283a <gencookie>
  400f29:	89 05 39 30 20 00    	mov    %eax,0x203039(%rip)        # 603f68 <authkey>
  400f2f:	8b 3d b3 2f 20 00    	mov    0x202fb3(%rip),%edi        # 603ee8 <target_id>
  400f35:	83 c7 01             	add    $0x1,%edi
  400f38:	e8 13 fd ff ff       	callq  400c50 <srandom@plt>
  400f3d:	e8 ee fd ff ff       	callq  400d30 <random@plt>
  400f42:	89 c7                	mov    %eax,%edi
  400f44:	e8 df 02 00 00       	callq  401228 <scramble>
  400f49:	89 c5                	mov    %eax,%ebp
  400f4b:	b8 00 00 00 00       	mov    $0x0,%eax
  400f50:	85 db                	test   %ebx,%ebx
  400f52:	74 16                	je     400f6a <initialize_target+0x6a>
  400f54:	bf 00 00 00 00       	mov    $0x0,%edi
  400f59:	e8 22 fe ff ff       	callq  400d80 <time@plt>
  400f5e:	89 c7                	mov    %eax,%edi
  400f60:	e8 eb fc ff ff       	callq  400c50 <srandom@plt>
  400f65:	e8 c6 fd ff ff       	callq  400d30 <random@plt>
  400f6a:	01 e8                	add    %ebp,%eax
  400f6c:	0f b7 c0             	movzwl %ax,%eax
  400f6f:	48 8d 04 c5 00 01 00 	lea    0x100(,%rax,8),%rax
  400f76:	00 
  400f77:	48 89 05 7a 2f 20 00 	mov    %rax,0x202f7a(%rip)        # 603ef8 <buf_offset>
  400f7e:	c6 05 1f 3c 20 00 63 	movb   $0x63,0x203c1f(%rip)        # 604ba4 <target_prefix>
  400f85:	83 3d 74 2f 20 00 00 	cmpl   $0x0,0x202f74(%rip)        # 603f00 <notify>
  400f8c:	0f 84 b5 00 00 00    	je     401047 <initialize_target+0x147>
  400f92:	83 3d c7 2f 20 00 00 	cmpl   $0x0,0x202fc7(%rip)        # 603f60 <is_checker>
  400f99:	0f 85 a8 00 00 00    	jne    401047 <initialize_target+0x147>
  400f9f:	48 8d bc 24 00 20 00 	lea    0x2000(%rsp),%rdi
  400fa6:	00 
  400fa7:	be 00 01 00 00       	mov    $0x100,%esi
  400fac:	e8 ff fc ff ff       	callq  400cb0 <gethostname@plt>
  400fb1:	85 c0                	test   %eax,%eax
  400fb3:	75 1b                	jne    400fd0 <initialize_target+0xd0>
  400fb5:	48 8b 3d 04 2c 20 00 	mov    0x202c04(%rip),%rdi        # 603bc0 <host_table>
  400fbc:	bb c8 3b 60 00       	mov    $0x603bc8,%ebx
  400fc1:	48 8d ac 24 00 20 00 	lea    0x2000(%rsp),%rbp
  400fc8:	00 
  400fc9:	48 85 ff             	test   %rdi,%rdi
  400fcc:	75 16                	jne    400fe4 <initialize_target+0xe4>
  400fce:	eb 56                	jmp    401026 <initialize_target+0x126>
  400fd0:	bf 40 2a 40 00       	mov    $0x402a40,%edi
  400fd5:	e8 e6 fb ff ff       	callq  400bc0 <puts@plt>
  400fda:	bf 08 00 00 00       	mov    $0x8,%edi
  400fdf:	e8 fc fb ff ff       	callq  400be0 <exit@plt>
  400fe4:	48 89 ee             	mov    %rbp,%rsi
  400fe7:	e8 04 fc ff ff       	callq  400bf0 <strcasecmp@plt>
  400fec:	85 c0                	test   %eax,%eax
  400fee:	74 0e                	je     400ffe <initialize_target+0xfe>
  400ff0:	48 8b 3b             	mov    (%rbx),%rdi
  400ff3:	48 83 c3 08          	add    $0x8,%rbx
  400ff7:	48 85 ff             	test   %rdi,%rdi
  400ffa:	75 e8                	jne    400fe4 <initialize_target+0xe4>
  400ffc:	eb 28                	jmp    401026 <initialize_target+0x126>
  400ffe:	48 89 e7             	mov    %rsp,%rdi
  401001:	e8 fa 0d 00 00       	callq  401e00 <init_driver>
  401006:	85 c0                	test   %eax,%eax
  401008:	79 3d                	jns    401047 <initialize_target+0x147>
  40100a:	48 89 e6             	mov    %rsp,%rsi
  40100d:	bf 78 2a 40 00       	mov    $0x402a78,%edi
  401012:	b8 00 00 00 00       	mov    $0x0,%eax
  401017:	e8 64 fb ff ff       	callq  400b80 <printf@plt>
  40101c:	bf 08 00 00 00       	mov    $0x8,%edi
  401021:	e8 ba fb ff ff       	callq  400be0 <exit@plt>
  401026:	48 8d b4 24 00 20 00 	lea    0x2000(%rsp),%rsi
  40102d:	00 
  40102e:	bf a0 2a 40 00       	mov    $0x402aa0,%edi
  401033:	b8 00 00 00 00       	mov    $0x0,%eax
  401038:	e8 43 fb ff ff       	callq  400b80 <printf@plt>
  40103d:	bf 08 00 00 00       	mov    $0x8,%edi
  401042:	e8 99 fb ff ff       	callq  400be0 <exit@plt>
  401047:	48 81 c4 08 21 00 00 	add    $0x2108,%rsp
  40104e:	5b                   	pop    %rbx
  40104f:	5d                   	pop    %rbp
  401050:	c3                   	retq   

0000000000401051 <main>:
  401051:	41 57                	push   %r15
  401053:	41 56                	push   %r14
  401055:	41 55                	push   %r13
  401057:	41 54                	push   %r12
  401059:	55                   	push   %rbp
  40105a:	53                   	push   %rbx
  40105b:	48 83 ec 08          	sub    $0x8,%rsp
  40105f:	41 89 fc             	mov    %edi,%r12d
  401062:	48 89 f3             	mov    %rsi,%rbx
  401065:	be ae 1b 40 00       	mov    $0x401bae,%esi
  40106a:	bf 0b 00 00 00       	mov    $0xb,%edi
  40106f:	e8 5c fc ff ff       	callq  400cd0 <signal@plt>
  401074:	be fe 1b 40 00       	mov    $0x401bfe,%esi
  401079:	bf 07 00 00 00       	mov    $0x7,%edi
  40107e:	e8 4d fc ff ff       	callq  400cd0 <signal@plt>
  401083:	be 5e 1b 40 00       	mov    $0x401b5e,%esi
  401088:	bf 04 00 00 00       	mov    $0x4,%edi
  40108d:	e8 3e fc ff ff       	callq  400cd0 <signal@plt>
  401092:	bd 7d 2b 40 00       	mov    $0x402b7d,%ebp
  401097:	83 3d c2 2e 20 00 00 	cmpl   $0x0,0x202ec2(%rip)        # 603f60 <is_checker>
  40109e:	74 1e                	je     4010be <main+0x6d>
  4010a0:	be 0e 1b 40 00       	mov    $0x401b0e,%esi
  4010a5:	bf 0e 00 00 00       	mov    $0xe,%edi
  4010aa:	e8 21 fc ff ff       	callq  400cd0 <signal@plt>
  4010af:	bf 05 00 00 00       	mov    $0x5,%edi
  4010b4:	e8 37 fc ff ff       	callq  400cf0 <alarm@plt>
  4010b9:	bd 82 2b 40 00       	mov    $0x402b82,%ebp
  4010be:	48 8b 05 5b 2e 20 00 	mov    0x202e5b(%rip),%rax        # 603f20 <stdin@@GLIBC_2.2.5>
  4010c5:	48 89 05 ac 2e 20 00 	mov    %rax,0x202eac(%rip)        # 603f78 <infile>
  4010cc:	41 be 00 00 00 00    	mov    $0x0,%r14d
  4010d2:	41 bf 00 00 00 00    	mov    $0x0,%r15d
  4010d8:	41 bd c8 2b 40 00    	mov    $0x402bc8,%r13d
  4010de:	e9 bd 00 00 00       	jmpq   4011a0 <main+0x14f>
  4010e3:	8d 50 9f             	lea    -0x61(%rax),%edx
  4010e6:	80 fa 10             	cmp    $0x10,%dl
  4010e9:	0f 87 97 00 00 00    	ja     401186 <main+0x135>
  4010ef:	0f b6 d2             	movzbl %dl,%edx
  4010f2:	41 ff 64 d5 00       	jmpq   *0x0(%r13,%rdx,8)
  4010f7:	48 8b 3b             	mov    (%rbx),%rdi
  4010fa:	e8 81 fd ff ff       	callq  400e80 <usage>
  4010ff:	90                   	nop
  401100:	e9 9b 00 00 00       	jmpq   4011a0 <main+0x14f>
  401105:	be de 2e 40 00       	mov    $0x402ede,%esi
  40110a:	48 8b 3d 2f 2e 20 00 	mov    0x202e2f(%rip),%rdi        # 603f40 <optarg@@GLIBC_2.2.5>
  401111:	e8 1a fb ff ff       	callq  400c30 <fopen@plt>
  401116:	48 89 05 5b 2e 20 00 	mov    %rax,0x202e5b(%rip)        # 603f78 <infile>
  40111d:	48 85 c0             	test   %rax,%rax
  401120:	75 7e                	jne    4011a0 <main+0x14f>
  401122:	48 8b 15 17 2e 20 00 	mov    0x202e17(%rip),%rdx        # 603f40 <optarg@@GLIBC_2.2.5>
  401129:	be 8a 2b 40 00       	mov    $0x402b8a,%esi
  40112e:	48 8b 3d 13 2e 20 00 	mov    0x202e13(%rip),%rdi        # 603f48 <stderr@@GLIBC_2.2.5>
  401135:	e8 06 fc ff ff       	callq  400d40 <fprintf@plt>
  40113a:	b8 01 00 00 00       	mov    $0x1,%eax
  40113f:	e9 d3 00 00 00       	jmpq   401217 <main+0x1c6>
  401144:	ba 10 00 00 00       	mov    $0x10,%edx
  401149:	be 00 00 00 00       	mov    $0x0,%esi
  40114e:	48 8b 3d eb 2d 20 00 	mov    0x202deb(%rip),%rdi        # 603f40 <optarg@@GLIBC_2.2.5>
  401155:	e8 06 fc ff ff       	callq  400d60 <strtoul@plt>
  40115a:	41 89 c7             	mov    %eax,%r15d
  40115d:	eb 41                	jmp    4011a0 <main+0x14f>
  40115f:	ba 0a 00 00 00       	mov    $0xa,%edx
  401164:	be 00 00 00 00       	mov    $0x0,%esi
  401169:	48 8b 3d d0 2d 20 00 	mov    0x202dd0(%rip),%rdi        # 603f40 <optarg@@GLIBC_2.2.5>
  401170:	e8 1b fb ff ff       	callq  400c90 <strtol@plt>
  401175:	41 89 c6             	mov    %eax,%r14d
  401178:	eb 26                	jmp    4011a0 <main+0x14f>
  40117a:	c7 05 7c 2d 20 00 00 	movl   $0x0,0x202d7c(%rip)        # 603f00 <notify>
  401181:	00 00 00 
  401184:	eb 1a                	jmp    4011a0 <main+0x14f>
  401186:	0f be f0             	movsbl %al,%esi
  401189:	bf a7 2b 40 00       	mov    $0x402ba7,%edi
  40118e:	b8 00 00 00 00       	mov    $0x0,%eax
  401193:	e8 e8 f9 ff ff       	callq  400b80 <printf@plt>
  401198:	48 8b 3b             	mov    (%rbx),%rdi
  40119b:	e8 e0 fc ff ff       	callq  400e80 <usage>
  4011a0:	48 89 ea             	mov    %rbp,%rdx
  4011a3:	48 89 de             	mov    %rbx,%rsi
  4011a6:	44 89 e7             	mov    %r12d,%edi
  4011a9:	e8 52 fa ff ff       	callq  400c00 <getopt@plt>
  4011ae:	3c ff                	cmp    $0xff,%al
  4011b0:	0f 85 2d ff ff ff    	jne    4010e3 <main+0x92>
  4011b6:	be 00 00 00 00       	mov    $0x0,%esi
  4011bb:	44 89 f7             	mov    %r14d,%edi
  4011be:	e8 3d fd ff ff       	callq  400f00 <initialize_target>
  4011c3:	83 3d 96 2d 20 00 00 	cmpl   $0x0,0x202d96(%rip)        # 603f60 <is_checker>
  4011ca:	74 25                	je     4011f1 <main+0x1a0>
  4011cc:	44 3b 3d 95 2d 20 00 	cmp    0x202d95(%rip),%r15d        # 603f68 <authkey>
  4011d3:	74 1c                	je     4011f1 <main+0x1a0>
  4011d5:	44 89 fe             	mov    %r15d,%esi
  4011d8:	bf e0 2a 40 00       	mov    $0x402ae0,%edi
  4011dd:	b8 00 00 00 00       	mov    $0x0,%eax
  4011e2:	e8 99 f9 ff ff       	callq  400b80 <printf@plt>
  4011e7:	b8 00 00 00 00       	mov    $0x0,%eax
  4011ec:	e8 1f 06 00 00       	callq  401810 <check_fail>
  4011f1:	8b 35 6d 2d 20 00    	mov    0x202d6d(%rip),%esi        # 603f64 <cookie>
  4011f7:	bf ba 2b 40 00       	mov    $0x402bba,%edi
  4011fc:	b8 00 00 00 00       	mov    $0x0,%eax
  401201:	e8 7a f9 ff ff       	callq  400b80 <printf@plt>
  401206:	48 8b 3d eb 2c 20 00 	mov    0x202ceb(%rip),%rdi        # 603ef8 <buf_offset>
  40120d:	e8 b0 06 00 00       	callq  4018c2 <stable_launch>
  401212:	b8 00 00 00 00       	mov    $0x0,%eax
  401217:	48 83 c4 08          	add    $0x8,%rsp
  40121b:	5b                   	pop    %rbx
  40121c:	5d                   	pop    %rbp
  40121d:	41 5c                	pop    %r12
  40121f:	41 5d                	pop    %r13
  401221:	41 5e                	pop    %r14
  401223:	41 5f                	pop    %r15
  401225:	c3                   	retq   
  401226:	90                   	nop
  401227:	90                   	nop

0000000000401228 <scramble>:
  401228:	b8 00 00 00 00       	mov    $0x0,%eax
  40122d:	89 c2                	mov    %eax,%edx
  40122f:	89 7c 94 c8          	mov    %edi,-0x38(%rsp,%rdx,4)
  401233:	83 c0 01             	add    $0x1,%eax
  401236:	81 c7 33 52 00 00    	add    $0x5233,%edi
  40123c:	83 f8 0a             	cmp    $0xa,%eax
  40123f:	75 ec                	jne    40122d <scramble+0x5>
  401241:	8b 44 24 e0          	mov    -0x20(%rsp),%eax
  401245:	69 c0 42 99 00 00    	imul   $0x9942,%eax,%eax
  40124b:	89 44 24 e0          	mov    %eax,-0x20(%rsp)
  40124f:	8b 44 24 e4          	mov    -0x1c(%rsp),%eax
  401253:	69 c0 f3 90 00 00    	imul   $0x90f3,%eax,%eax
  401259:	89 44 24 e4          	mov    %eax,-0x1c(%rsp)
  40125d:	8b 44 24 d4          	mov    -0x2c(%rsp),%eax
  401261:	69 c0 99 1a 00 00    	imul   $0x1a99,%eax,%eax
  401267:	89 44 24 d4          	mov    %eax,-0x2c(%rsp)
  40126b:	8b 44 24 dc          	mov    -0x24(%rsp),%eax
  40126f:	69 c0 24 f9 00 00    	imul   $0xf924,%eax,%eax
  401275:	89 44 24 dc          	mov    %eax,-0x24(%rsp)
  401279:	8b 44 24 d8          	mov    -0x28(%rsp),%eax
  40127d:	69 c0 40 33 00 00    	imul   $0x3340,%eax,%eax
  401283:	89 44 24 d8          	mov    %eax,-0x28(%rsp)
  401287:	8b 44 24 d8          	mov    -0x28(%rsp),%eax
  40128b:	69 c0 ba 8a 00 00    	imul   $0x8aba,%eax,%eax
  401291:	89 44 24 d8          	mov    %eax,-0x28(%rsp)
  401295:	8b 44 24 d8          	mov    -0x28(%rsp),%eax
  401299:	69 c0 6b ba 00 00    	imul   $0xba6b,%eax,%eax
  40129f:	89 44 24 d8          	mov    %eax,-0x28(%rsp)
  4012a3:	8b 44 24 cc          	mov    -0x34(%rsp),%eax
  4012a7:	69 c0 76 a1 00 00    	imul   $0xa176,%eax,%eax
  4012ad:	89 44 24 cc          	mov    %eax,-0x34(%rsp)
  4012b1:	8b 44 24 ec          	mov    -0x14(%rsp),%eax
  4012b5:	69 c0 e9 53 00 00    	imul   $0x53e9,%eax,%eax
  4012bb:	89 44 24 ec          	mov    %eax,-0x14(%rsp)
  4012bf:	8b 44 24 d8          	mov    -0x28(%rsp),%eax
  4012c3:	69 c0 65 12 00 00    	imul   $0x1265,%eax,%eax
  4012c9:	89 44 24 d8          	mov    %eax,-0x28(%rsp)
  4012cd:	8b 44 24 ec          	mov    -0x14(%rsp),%eax
  4012d1:	69 c0 60 36 00 00    	imul   $0x3660,%eax,%eax
  4012d7:	89 44 24 ec          	mov    %eax,-0x14(%rsp)
  4012db:	8b 44 24 e8          	mov    -0x18(%rsp),%eax
  4012df:	69 c0 45 81 00 00    	imul   $0x8145,%eax,%eax
  4012e5:	89 44 24 e8          	mov    %eax,-0x18(%rsp)
  4012e9:	8b 44 24 d0          	mov    -0x30(%rsp),%eax
  4012ed:	69 c0 62 ba 00 00    	imul   $0xba62,%eax,%eax
  4012f3:	89 44 24 d0          	mov    %eax,-0x30(%rsp)
  4012f7:	8b 44 24 c8          	mov    -0x38(%rsp),%eax
  4012fb:	69 c0 60 d4 00 00    	imul   $0xd460,%eax,%eax
  401301:	89 44 24 c8          	mov    %eax,-0x38(%rsp)
  401305:	8b 44 24 d4          	mov    -0x2c(%rsp),%eax
  401309:	69 c0 0e 80 00 00    	imul   $0x800e,%eax,%eax
  40130f:	89 44 24 d4          	mov    %eax,-0x2c(%rsp)
  401313:	8b 44 24 e0          	mov    -0x20(%rsp),%eax
  401317:	69 c0 d8 06 00 00    	imul   $0x6d8,%eax,%eax
  40131d:	89 44 24 e0          	mov    %eax,-0x20(%rsp)
  401321:	8b 44 24 ec          	mov    -0x14(%rsp),%eax
  401325:	69 c0 5b a6 00 00    	imul   $0xa65b,%eax,%eax
  40132b:	89 44 24 ec          	mov    %eax,-0x14(%rsp)
  40132f:	8b 44 24 d8          	mov    -0x28(%rsp),%eax
  401333:	69 c0 6a dd 00 00    	imul   $0xdd6a,%eax,%eax
  401339:	89 44 24 d8          	mov    %eax,-0x28(%rsp)
  40133d:	8b 44 24 d0          	mov    -0x30(%rsp),%eax
  401341:	69 c0 e7 6d 00 00    	imul   $0x6de7,%eax,%eax
  401347:	89 44 24 d0          	mov    %eax,-0x30(%rsp)
  40134b:	8b 44 24 ec          	mov    -0x14(%rsp),%eax
  40134f:	69 c0 6d da 00 00    	imul   $0xda6d,%eax,%eax
  401355:	89 44 24 ec          	mov    %eax,-0x14(%rsp)
  401359:	8b 44 24 dc          	mov    -0x24(%rsp),%eax
  40135d:	69 c0 00 39 00 00    	imul   $0x3900,%eax,%eax
  401363:	89 44 24 dc          	mov    %eax,-0x24(%rsp)
  401367:	8b 44 24 cc          	mov    -0x34(%rsp),%eax
  40136b:	69 c0 34 0c 00 00    	imul   $0xc34,%eax,%eax
  401371:	89 44 24 cc          	mov    %eax,-0x34(%rsp)
  401375:	8b 44 24 e8          	mov    -0x18(%rsp),%eax
  401379:	69 c0 d6 b7 00 00    	imul   $0xb7d6,%eax,%eax
  40137f:	89 44 24 e8          	mov    %eax,-0x18(%rsp)
  401383:	8b 44 24 d4          	mov    -0x2c(%rsp),%eax
  401387:	69 c0 d8 cd 00 00    	imul   $0xcdd8,%eax,%eax
  40138d:	89 44 24 d4          	mov    %eax,-0x2c(%rsp)
  401391:	8b 44 24 ec          	mov    -0x14(%rsp),%eax
  401395:	69 c0 bf ab 00 00    	imul   $0xabbf,%eax,%eax
  40139b:	89 44 24 ec          	mov    %eax,-0x14(%rsp)
  40139f:	8b 44 24 e4          	mov    -0x1c(%rsp),%eax
  4013a3:	69 c0 5b 77 00 00    	imul   $0x775b,%eax,%eax
  4013a9:	89 44 24 e4          	mov    %eax,-0x1c(%rsp)
  4013ad:	8b 44 24 d0          	mov    -0x30(%rsp),%eax
  4013b1:	69 c0 75 67 00 00    	imul   $0x6775,%eax,%eax
  4013b7:	89 44 24 d0          	mov    %eax,-0x30(%rsp)
  4013bb:	8b 44 24 dc          	mov    -0x24(%rsp),%eax
  4013bf:	69 c0 de ed 00 00    	imul   $0xedde,%eax,%eax
  4013c5:	89 44 24 dc          	mov    %eax,-0x24(%rsp)
  4013c9:	8b 44 24 e0          	mov    -0x20(%rsp),%eax
  4013cd:	69 c0 9a d8 00 00    	imul   $0xd89a,%eax,%eax
  4013d3:	89 44 24 e0          	mov    %eax,-0x20(%rsp)
  4013d7:	8b 44 24 e4          	mov    -0x1c(%rsp),%eax
  4013db:	69 c0 7c d6 00 00    	imul   $0xd67c,%eax,%eax
  4013e1:	89 44 24 e4          	mov    %eax,-0x1c(%rsp)
  4013e5:	8b 44 24 d0          	mov    -0x30(%rsp),%eax
  4013e9:	69 c0 7b 14 00 00    	imul   $0x147b,%eax,%eax
  4013ef:	89 44 24 d0          	mov    %eax,-0x30(%rsp)
  4013f3:	8b 44 24 cc          	mov    -0x34(%rsp),%eax
  4013f7:	69 c0 f9 71 00 00    	imul   $0x71f9,%eax,%eax
  4013fd:	89 44 24 cc          	mov    %eax,-0x34(%rsp)
  401401:	8b 44 24 ec          	mov    -0x14(%rsp),%eax
  401405:	69 c0 1f 75 00 00    	imul   $0x751f,%eax,%eax
  40140b:	89 44 24 ec          	mov    %eax,-0x14(%rsp)
  40140f:	8b 44 24 e0          	mov    -0x20(%rsp),%eax
  401413:	69 c0 cb 7b 00 00    	imul   $0x7bcb,%eax,%eax
  401419:	89 44 24 e0          	mov    %eax,-0x20(%rsp)
  40141d:	8b 44 24 ec          	mov    -0x14(%rsp),%eax
  401421:	69 c0 f1 25 00 00    	imul   $0x25f1,%eax,%eax
  401427:	89 44 24 ec          	mov    %eax,-0x14(%rsp)
  40142b:	8b 44 24 c8          	mov    -0x38(%rsp),%eax
  40142f:	69 c0 2e 84 00 00    	imul   $0x842e,%eax,%eax
  401435:	89 44 24 c8          	mov    %eax,-0x38(%rsp)
  401439:	8b 44 24 d0          	mov    -0x30(%rsp),%eax
  40143d:	69 c0 60 bb 00 00    	imul   $0xbb60,%eax,%eax
  401443:	89 44 24 d0          	mov    %eax,-0x30(%rsp)
  401447:	8b 44 24 e8          	mov    -0x18(%rsp),%eax
  40144b:	69 c0 5d 52 00 00    	imul   $0x525d,%eax,%eax
  401451:	89 44 24 e8          	mov    %eax,-0x18(%rsp)
  401455:	8b 44 24 e0          	mov    -0x20(%rsp),%eax
  401459:	69 c0 0c 3e 00 00    	imul   $0x3e0c,%eax,%eax
  40145f:	89 44 24 e0          	mov    %eax,-0x20(%rsp)
  401463:	8b 44 24 ec          	mov    -0x14(%rsp),%eax
  401467:	69 c0 f5 7e 00 00    	imul   $0x7ef5,%eax,%eax
  40146d:	89 44 24 ec          	mov    %eax,-0x14(%rsp)
  401471:	8b 44 24 d0          	mov    -0x30(%rsp),%eax
  401475:	6b c0 73             	imul   $0x73,%eax,%eax
  401478:	89 44 24 d0          	mov    %eax,-0x30(%rsp)
  40147c:	8b 44 24 c8          	mov    -0x38(%rsp),%eax
  401480:	69 c0 eb cb 00 00    	imul   $0xcbeb,%eax,%eax
  401486:	89 44 24 c8          	mov    %eax,-0x38(%rsp)
  40148a:	8b 44 24 dc          	mov    -0x24(%rsp),%eax
  40148e:	69 c0 f1 ee 00 00    	imul   $0xeef1,%eax,%eax
  401494:	89 44 24 dc          	mov    %eax,-0x24(%rsp)
  401498:	8b 44 24 cc          	mov    -0x34(%rsp),%eax
  40149c:	69 c0 c0 89 00 00    	imul   $0x89c0,%eax,%eax
  4014a2:	89 44 24 cc          	mov    %eax,-0x34(%rsp)
  4014a6:	8b 44 24 d8          	mov    -0x28(%rsp),%eax
  4014aa:	69 c0 07 7c 00 00    	imul   $0x7c07,%eax,%eax
  4014b0:	89 44 24 d8          	mov    %eax,-0x28(%rsp)
  4014b4:	8b 44 24 d8          	mov    -0x28(%rsp),%eax
  4014b8:	69 c0 34 20 00 00    	imul   $0x2034,%eax,%eax
  4014be:	89 44 24 d8          	mov    %eax,-0x28(%rsp)
  4014c2:	8b 44 24 e0          	mov    -0x20(%rsp),%eax
  4014c6:	69 c0 90 3d 00 00    	imul   $0x3d90,%eax,%eax
  4014cc:	89 44 24 e0          	mov    %eax,-0x20(%rsp)
  4014d0:	8b 44 24 ec          	mov    -0x14(%rsp),%eax
  4014d4:	69 c0 59 4b 00 00    	imul   $0x4b59,%eax,%eax
  4014da:	89 44 24 ec          	mov    %eax,-0x14(%rsp)
  4014de:	8b 44 24 dc          	mov    -0x24(%rsp),%eax
  4014e2:	69 c0 91 e1 00 00    	imul   $0xe191,%eax,%eax
  4014e8:	89 44 24 dc          	mov    %eax,-0x24(%rsp)
  4014ec:	8b 44 24 ec          	mov    -0x14(%rsp),%eax
  4014f0:	69 c0 b6 95 00 00    	imul   $0x95b6,%eax,%eax
  4014f6:	89 44 24 ec          	mov    %eax,-0x14(%rsp)
  4014fa:	8b 44 24 d8          	mov    -0x28(%rsp),%eax
  4014fe:	69 c0 5e 1d 00 00    	imul   $0x1d5e,%eax,%eax
  401504:	89 44 24 d8          	mov    %eax,-0x28(%rsp)
  401508:	8b 44 24 d0          	mov    -0x30(%rsp),%eax
  40150c:	69 c0 75 66 00 00    	imul   $0x6675,%eax,%eax
  401512:	89 44 24 d0          	mov    %eax,-0x30(%rsp)
  401516:	8b 44 24 d8          	mov    -0x28(%rsp),%eax
  40151a:	69 c0 46 aa 00 00    	imul   $0xaa46,%eax,%eax
  401520:	89 44 24 d8          	mov    %eax,-0x28(%rsp)
  401524:	8b 44 24 e8          	mov    -0x18(%rsp),%eax
  401528:	69 c0 f5 4b 00 00    	imul   $0x4bf5,%eax,%eax
  40152e:	89 44 24 e8          	mov    %eax,-0x18(%rsp)
  401532:	8b 44 24 e0          	mov    -0x20(%rsp),%eax
  401536:	69 c0 08 d9 00 00    	imul   $0xd908,%eax,%eax
  40153c:	89 44 24 e0          	mov    %eax,-0x20(%rsp)
  401540:	8b 44 24 d0          	mov    -0x30(%rsp),%eax
  401544:	69 c0 1d d2 00 00    	imul   $0xd21d,%eax,%eax
  40154a:	89 44 24 d0          	mov    %eax,-0x30(%rsp)
  40154e:	8b 44 24 e0          	mov    -0x20(%rsp),%eax
  401552:	69 c0 3b c1 00 00    	imul   $0xc13b,%eax,%eax
  401558:	89 44 24 e0          	mov    %eax,-0x20(%rsp)
  40155c:	8b 44 24 e0          	mov    -0x20(%rsp),%eax
  401560:	69 c0 64 41 00 00    	imul   $0x4164,%eax,%eax
  401566:	89 44 24 e0          	mov    %eax,-0x20(%rsp)
  40156a:	8b 44 24 c8          	mov    -0x38(%rsp),%eax
  40156e:	69 c0 d1 57 00 00    	imul   $0x57d1,%eax,%eax
  401574:	89 44 24 c8          	mov    %eax,-0x38(%rsp)
  401578:	8b 44 24 d8          	mov    -0x28(%rsp),%eax
  40157c:	69 c0 b7 77 00 00    	imul   $0x77b7,%eax,%eax
  401582:	89 44 24 d8          	mov    %eax,-0x28(%rsp)
  401586:	8b 44 24 c8          	mov    -0x38(%rsp),%eax
  40158a:	69 c0 60 2b 00 00    	imul   $0x2b60,%eax,%eax
  401590:	89 44 24 c8          	mov    %eax,-0x38(%rsp)
  401594:	8b 44 24 d8          	mov    -0x28(%rsp),%eax
  401598:	69 c0 5b 64 00 00    	imul   $0x645b,%eax,%eax
  40159e:	89 44 24 d8          	mov    %eax,-0x28(%rsp)
  4015a2:	8b 44 24 e8          	mov    -0x18(%rsp),%eax
  4015a6:	69 c0 1a 2a 00 00    	imul   $0x2a1a,%eax,%eax
  4015ac:	89 44 24 e8          	mov    %eax,-0x18(%rsp)
  4015b0:	8b 44 24 d4          	mov    -0x2c(%rsp),%eax
  4015b4:	69 c0 a0 1b 00 00    	imul   $0x1ba0,%eax,%eax
  4015ba:	89 44 24 d4          	mov    %eax,-0x2c(%rsp)
  4015be:	8b 44 24 d0          	mov    -0x30(%rsp),%eax
  4015c2:	69 c0 d9 76 00 00    	imul   $0x76d9,%eax,%eax
  4015c8:	89 44 24 d0          	mov    %eax,-0x30(%rsp)
  4015cc:	8b 44 24 d4          	mov    -0x2c(%rsp),%eax
  4015d0:	69 c0 2e 13 00 00    	imul   $0x132e,%eax,%eax
  4015d6:	89 44 24 d4          	mov    %eax,-0x2c(%rsp)
  4015da:	8b 44 24 dc          	mov    -0x24(%rsp),%eax
  4015de:	69 c0 3a cb 00 00    	imul   $0xcb3a,%eax,%eax
  4015e4:	89 44 24 dc          	mov    %eax,-0x24(%rsp)
  4015e8:	8b 44 24 d8          	mov    -0x28(%rsp),%eax
  4015ec:	69 c0 f6 6c 00 00    	imul   $0x6cf6,%eax,%eax
  4015f2:	89 44 24 d8          	mov    %eax,-0x28(%rsp)
  4015f6:	8b 44 24 cc          	mov    -0x34(%rsp),%eax
  4015fa:	69 c0 76 32 00 00    	imul   $0x3276,%eax,%eax
  401600:	89 44 24 cc          	mov    %eax,-0x34(%rsp)
  401604:	8b 44 24 d8          	mov    -0x28(%rsp),%eax
  401608:	69 c0 d2 5d 00 00    	imul   $0x5dd2,%eax,%eax
  40160e:	89 44 24 d8          	mov    %eax,-0x28(%rsp)
  401612:	8b 44 24 ec          	mov    -0x14(%rsp),%eax
  401616:	69 c0 d5 83 00 00    	imul   $0x83d5,%eax,%eax
  40161c:	89 44 24 ec          	mov    %eax,-0x14(%rsp)
  401620:	8b 44 24 c8          	mov    -0x38(%rsp),%eax
  401624:	69 c0 fa e4 00 00    	imul   $0xe4fa,%eax,%eax
  40162a:	89 44 24 c8          	mov    %eax,-0x38(%rsp)
  40162e:	ba 00 00 00 00       	mov    $0x0,%edx
  401633:	b8 00 00 00 00       	mov    $0x0,%eax
  401638:	89 d1                	mov    %edx,%ecx
  40163a:	8b 4c 8c c8          	mov    -0x38(%rsp,%rcx,4),%ecx
  40163e:	01 c8                	add    %ecx,%eax
  401640:	83 c2 01             	add    $0x1,%edx
  401643:	83 fa 0a             	cmp    $0xa,%edx
  401646:	75 f0                	jne    401638 <scramble+0x410>
  401648:	f3 c3                	repz retq 
  40164a:	90                   	nop
  40164b:	90                   	nop

000000000040164c <getbuf>:
  40164c:	48 83 ec 18          	sub    $0x18,%rsp
  401650:	48 89 e7             	mov    %rsp,%rdi
  401653:	e8 f3 06 00 00       	callq  401d4b <Gets>
  401658:	b8 01 00 00 00       	mov    $0x1,%eax
  40165d:	48 83 c4 18          	add    $0x18,%rsp
  401661:	c3                   	retq   
  401662:	90                   	nop
  401663:	90                   	nop

0000000000401664 <test>:
  401664:	48 83 ec 08          	sub    $0x8,%rsp
  401668:	b8 00 00 00 00       	mov    $0x0,%eax
  40166d:	e8 da ff ff ff       	callq  40164c <getbuf>
  401672:	89 c6                	mov    %eax,%esi
  401674:	bf 00 2d 40 00       	mov    $0x402d00,%edi
  401679:	b8 00 00 00 00       	mov    $0x0,%eax
  40167e:	e8 fd f4 ff ff       	callq  400b80 <printf@plt>
  401683:	48 83 c4 08          	add    $0x8,%rsp
  401687:	c3                   	retq   

0000000000401688 <touch2>:
  401688:	48 83 ec 08          	sub    $0x8,%rsp
  40168c:	89 fe                	mov    %edi,%esi
  40168e:	c7 05 d4 28 20 00 02 	movl   $0x2,0x2028d4(%rip)        # 603f6c <vlevel>
  401695:	00 00 00 
  401698:	3b 3d c6 28 20 00    	cmp    0x2028c6(%rip),%edi        # 603f64 <cookie>
  40169e:	75 1b                	jne    4016bb <touch2+0x33>
  4016a0:	bf 28 2d 40 00       	mov    $0x402d28,%edi
  4016a5:	b8 00 00 00 00       	mov    $0x0,%eax
  4016aa:	e8 d1 f4 ff ff       	callq  400b80 <printf@plt>
  4016af:	bf 02 00 00 00       	mov    $0x2,%edi
  4016b4:	e8 bf 05 00 00       	callq  401c78 <validate>
  4016b9:	eb 19                	jmp    4016d4 <touch2+0x4c>
  4016bb:	bf 50 2d 40 00       	mov    $0x402d50,%edi
  4016c0:	b8 00 00 00 00       	mov    $0x0,%eax
  4016c5:	e8 b6 f4 ff ff       	callq  400b80 <printf@plt>
  4016ca:	bf 02 00 00 00       	mov    $0x2,%edi
  4016cf:	e8 7a 05 00 00       	callq  401c4e <fail>
  4016d4:	bf 00 00 00 00       	mov    $0x0,%edi
  4016d9:	e8 02 f5 ff ff       	callq  400be0 <exit@plt>

00000000004016de <hexmatch>:
  4016de:	48 89 5c 24 e8       	mov    %rbx,-0x18(%rsp)
  4016e3:	48 89 6c 24 f0       	mov    %rbp,-0x10(%rsp)
  4016e8:	4c 89 64 24 f8       	mov    %r12,-0x8(%rsp)
  4016ed:	48 81 ec 88 00 00 00 	sub    $0x88,%rsp
  4016f4:	89 fd                	mov    %edi,%ebp
  4016f6:	49 89 f4             	mov    %rsi,%r12
  4016f9:	e8 32 f6 ff ff       	callq  400d30 <random@plt>
  4016fe:	48 89 c1             	mov    %rax,%rcx
  401701:	48 ba 0b d7 a3 70 3d 	mov    $0xa3d70a3d70a3d70b,%rdx
  401708:	0a d7 a3 
  40170b:	48 f7 ea             	imul   %rdx
  40170e:	48 01 ca             	add    %rcx,%rdx
  401711:	48 c1 fa 06          	sar    $0x6,%rdx
  401715:	48 89 c8             	mov    %rcx,%rax
  401718:	48 c1 f8 3f          	sar    $0x3f,%rax
  40171c:	48 29 c2             	sub    %rax,%rdx
  40171f:	48 8d 04 92          	lea    (%rdx,%rdx,4),%rax
  401723:	48 8d 04 80          	lea    (%rax,%rax,4),%rax
  401727:	48 c1 e0 02          	shl    $0x2,%rax
  40172b:	48 29 c1             	sub    %rax,%rcx
  40172e:	48 8d 1c 0c          	lea    (%rsp,%rcx,1),%rbx
  401732:	89 ea                	mov    %ebp,%edx
  401734:	be c2 2d 40 00       	mov    $0x402dc2,%esi
  401739:	48 89 df             	mov    %rbx,%rdi
  40173c:	b8 00 00 00 00       	mov    $0x0,%eax
  401741:	e8 3a f5 ff ff       	callq  400c80 <sprintf@plt>
  401746:	ba 09 00 00 00       	mov    $0x9,%edx
  40174b:	48 89 de             	mov    %rbx,%rsi
  40174e:	4c 89 e7             	mov    %r12,%rdi
  401751:	e8 ca f4 ff ff       	callq  400c20 <strncmp@plt>
  401756:	85 c0                	test   %eax,%eax
  401758:	0f 94 c0             	sete   %al
  40175b:	0f b6 c0             	movzbl %al,%eax
  40175e:	48 8b 5c 24 70       	mov    0x70(%rsp),%rbx
  401763:	48 8b 6c 24 78       	mov    0x78(%rsp),%rbp
  401768:	4c 8b a4 24 80 00 00 	mov    0x80(%rsp),%r12
  40176f:	00 
  401770:	48 81 c4 88 00 00 00 	add    $0x88,%rsp
  401777:	c3                   	retq   

0000000000401778 <touch3>:
  401778:	53                   	push   %rbx
  401779:	48 89 fb             	mov    %rdi,%rbx
  40177c:	c7 05 e6 27 20 00 03 	movl   $0x3,0x2027e6(%rip)        # 603f6c <vlevel>
  401783:	00 00 00 
  401786:	48 89 fe             	mov    %rdi,%rsi
  401789:	8b 3d d5 27 20 00    	mov    0x2027d5(%rip),%edi        # 603f64 <cookie>
  40178f:	e8 4a ff ff ff       	callq  4016de <hexmatch>
  401794:	85 c0                	test   %eax,%eax
  401796:	74 1e                	je     4017b6 <touch3+0x3e>
  401798:	48 89 de             	mov    %rbx,%rsi
  40179b:	bf 78 2d 40 00       	mov    $0x402d78,%edi
  4017a0:	b8 00 00 00 00       	mov    $0x0,%eax
  4017a5:	e8 d6 f3 ff ff       	callq  400b80 <printf@plt>
  4017aa:	bf 03 00 00 00       	mov    $0x3,%edi
  4017af:	e8 c4 04 00 00       	callq  401c78 <validate>
  4017b4:	eb 1c                	jmp    4017d2 <touch3+0x5a>
  4017b6:	48 89 de             	mov    %rbx,%rsi
  4017b9:	bf a0 2d 40 00       	mov    $0x402da0,%edi
  4017be:	b8 00 00 00 00       	mov    $0x0,%eax
  4017c3:	e8 b8 f3 ff ff       	callq  400b80 <printf@plt>
  4017c8:	bf 03 00 00 00       	mov    $0x3,%edi
  4017cd:	e8 7c 04 00 00       	callq  401c4e <fail>
  4017d2:	bf 00 00 00 00       	mov    $0x0,%edi
  4017d7:	e8 04 f4 ff ff       	callq  400be0 <exit@plt>

00000000004017dc <touch1>:
  4017dc:	48 83 ec 08          	sub    $0x8,%rsp
  4017e0:	c7 05 82 27 20 00 01 	movl   $0x1,0x202782(%rip)        # 603f6c <vlevel>
  4017e7:	00 00 00 
  4017ea:	bf c7 2d 40 00       	mov    $0x402dc7,%edi
  4017ef:	e8 cc f3 ff ff       	callq  400bc0 <puts@plt>
  4017f4:	bf 01 00 00 00       	mov    $0x1,%edi
  4017f9:	e8 7a 04 00 00       	callq  401c78 <validate>
  4017fe:	bf 00 00 00 00       	mov    $0x0,%edi
  401803:	e8 d8 f3 ff ff       	callq  400be0 <exit@plt>
  401808:	90                   	nop
  401809:	90                   	nop
  40180a:	90                   	nop
  40180b:	90                   	nop
  40180c:	90                   	nop
  40180d:	90                   	nop
  40180e:	90                   	nop
  40180f:	90                   	nop

0000000000401810 <check_fail>:
  401810:	48 83 ec 08          	sub    $0x8,%rsp
  401814:	0f be 35 89 33 20 00 	movsbl 0x203389(%rip),%esi        # 604ba4 <target_prefix>
  40181b:	b9 a0 3f 60 00       	mov    $0x603fa0,%ecx
  401820:	8b 15 4a 27 20 00    	mov    0x20274a(%rip),%edx        # 603f70 <check_level>
  401826:	bf e4 2d 40 00       	mov    $0x402de4,%edi
  40182b:	b8 00 00 00 00       	mov    $0x0,%eax
  401830:	e8 4b f3 ff ff       	callq  400b80 <printf@plt>
  401835:	bf 01 00 00 00       	mov    $0x1,%edi
  40183a:	e8 a1 f3 ff ff       	callq  400be0 <exit@plt>

000000000040183f <launch>:
  40183f:	55                   	push   %rbp
  401840:	48 89 e5             	mov    %rsp,%rbp
  401843:	48 89 fa             	mov    %rdi,%rdx
  401846:	48 8d 47 1e          	lea    0x1e(%rdi),%rax
  40184a:	48 83 e0 f0          	and    $0xfffffffffffffff0,%rax
  40184e:	48 29 c4             	sub    %rax,%rsp
  401851:	48 8d 7c 24 0f       	lea    0xf(%rsp),%rdi
  401856:	48 83 e7 f0          	and    $0xfffffffffffffff0,%rdi
  40185a:	be f4 00 00 00       	mov    $0xf4,%esi
  40185f:	e8 2c f3 ff ff       	callq  400b90 <memset@plt>
  401864:	48 8b 05 b5 26 20 00 	mov    0x2026b5(%rip),%rax        # 603f20 <stdin@@GLIBC_2.2.5>
  40186b:	48 39 05 06 27 20 00 	cmp    %rax,0x202706(%rip)        # 603f78 <infile>
  401872:	75 0f                	jne    401883 <launch+0x44>
  401874:	bf fa 2d 40 00       	mov    $0x402dfa,%edi
  401879:	b8 00 00 00 00       	mov    $0x0,%eax
  40187e:	e8 fd f2 ff ff       	callq  400b80 <printf@plt>
  401883:	c7 05 df 26 20 00 00 	movl   $0x0,0x2026df(%rip)        # 603f6c <vlevel>
  40188a:	00 00 00 
  40188d:	b8 00 00 00 00       	mov    $0x0,%eax
  401892:	e8 cd fd ff ff       	callq  401664 <test>
  401897:	83 3d c2 26 20 00 00 	cmpl   $0x0,0x2026c2(%rip)        # 603f60 <is_checker>
  40189e:	74 16                	je     4018b6 <launch+0x77>
  4018a0:	bf 07 2e 40 00       	mov    $0x402e07,%edi
  4018a5:	e8 16 f3 ff ff       	callq  400bc0 <puts@plt>
  4018aa:	b8 00 00 00 00       	mov    $0x0,%eax
  4018af:	e8 5c ff ff ff       	callq  401810 <check_fail>
  4018b4:	eb 0a                	jmp    4018c0 <launch+0x81>
  4018b6:	bf 12 2e 40 00       	mov    $0x402e12,%edi
  4018bb:	e8 00 f3 ff ff       	callq  400bc0 <puts@plt>
  4018c0:	c9                   	leaveq 
  4018c1:	c3                   	retq   

00000000004018c2 <stable_launch>:
  4018c2:	48 83 ec 08          	sub    $0x8,%rsp
  4018c6:	48 89 3d b3 26 20 00 	mov    %rdi,0x2026b3(%rip)        # 603f80 <global_offset>
  4018cd:	41 b9 00 00 00 00    	mov    $0x0,%r9d
  4018d3:	41 b8 00 00 00 00    	mov    $0x0,%r8d
  4018d9:	b9 32 01 00 00       	mov    $0x132,%ecx
  4018de:	ba 07 00 00 00       	mov    $0x7,%edx
  4018e3:	be 00 00 10 00       	mov    $0x100000,%esi
  4018e8:	bf 00 60 58 55       	mov    $0x55586000,%edi
  4018ed:	e8 7e f4 ff ff       	callq  400d70 <mmap@plt>
  4018f2:	48 3d 00 60 58 55    	cmp    $0x55586000,%rax
  4018f8:	74 32                	je     40192c <stable_launch+0x6a>
  4018fa:	be 00 00 10 00       	mov    $0x100000,%esi
  4018ff:	48 89 c7             	mov    %rax,%rdi
  401902:	e8 19 f4 ff ff       	callq  400d20 <munmap@plt>
  401907:	ba 00 60 58 55       	mov    $0x55586000,%edx
  40190c:	be 18 2f 40 00       	mov    $0x402f18,%esi
  401911:	48 8b 3d 30 26 20 00 	mov    0x202630(%rip),%rdi        # 603f48 <stderr@@GLIBC_2.2.5>
  401918:	b8 00 00 00 00       	mov    $0x0,%eax
  40191d:	e8 1e f4 ff ff       	callq  400d40 <fprintf@plt>
  401922:	bf 01 00 00 00       	mov    $0x1,%edi
  401927:	e8 b4 f2 ff ff       	callq  400be0 <exit@plt>
  40192c:	48 c7 05 71 32 20 00 	movq   $0x55685ff8,0x203271(%rip)        # 604ba8 <stack_top>
  401933:	f8 5f 68 55 
  401937:	ba f8 5f 68 55       	mov    $0x55685ff8,%edx
  40193c:	48 89 e0             	mov    %rsp,%rax
  40193f:	48 89 d4             	mov    %rdx,%rsp
  401942:	48 89 c2             	mov    %rax,%rdx
  401945:	48 89 15 3c 26 20 00 	mov    %rdx,0x20263c(%rip)        # 603f88 <global_save_stack>
  40194c:	48 8b 3d 2d 26 20 00 	mov    0x20262d(%rip),%rdi        # 603f80 <global_offset>
  401953:	e8 e7 fe ff ff       	callq  40183f <launch>
  401958:	48 8b 05 29 26 20 00 	mov    0x202629(%rip),%rax        # 603f88 <global_save_stack>
  40195f:	48 89 c4             	mov    %rax,%rsp
  401962:	be 00 00 10 00       	mov    $0x100000,%esi
  401967:	bf 00 60 58 55       	mov    $0x55586000,%edi
  40196c:	e8 af f3 ff ff       	callq  400d20 <munmap@plt>
  401971:	48 83 c4 08          	add    $0x8,%rsp
  401975:	c3                   	retq   

0000000000401976 <notify_server>:
  401976:	53                   	push   %rbx
  401977:	48 81 ec 10 40 00 00 	sub    $0x4010,%rsp
  40197e:	89 fb                	mov    %edi,%ebx
  401980:	83 3d d9 25 20 00 00 	cmpl   $0x0,0x2025d9(%rip)        # 603f60 <is_checker>
  401987:	0f 85 78 01 00 00    	jne    401b05 <notify_server+0x18f>
  40198d:	8b 05 fd 25 20 00    	mov    0x2025fd(%rip),%eax        # 603f90 <gets_cnt>
  401993:	83 c0 64             	add    $0x64,%eax
  401996:	3d 00 20 00 00       	cmp    $0x2000,%eax
  40199b:	7e 19                	jle    4019b6 <notify_server+0x40>
  40199d:	bf 40 2f 40 00       	mov    $0x402f40,%edi
  4019a2:	b8 00 00 00 00       	mov    $0x0,%eax
  4019a7:	e8 d4 f1 ff ff       	callq  400b80 <printf@plt>
  4019ac:	bf 01 00 00 00       	mov    $0x1,%edi
  4019b1:	e8 2a f2 ff ff       	callq  400be0 <exit@plt>
  4019b6:	83 3d 43 25 20 00 00 	cmpl   $0x0,0x202543(%rip)        # 603f00 <notify>
  4019bd:	41 b8 ff ff ff ff    	mov    $0xffffffff,%r8d
  4019c3:	44 0f 45 05 9d 25 20 	cmovne 0x20259d(%rip),%r8d        # 603f68 <authkey>
  4019ca:	00 
  4019cb:	85 ff                	test   %edi,%edi
  4019cd:	b8 20 2e 40 00       	mov    $0x402e20,%eax
  4019d2:	b9 25 2e 40 00       	mov    $0x402e25,%ecx
  4019d7:	48 0f 44 c8          	cmove  %rax,%rcx
  4019db:	44 0f be 0d c1 31 20 	movsbl 0x2031c1(%rip),%r9d        # 604ba4 <target_prefix>
  4019e2:	00 
  4019e3:	48 8d bc 24 10 20 00 	lea    0x2010(%rsp),%rdi
  4019ea:	00 
  4019eb:	48 c7 44 24 08 a0 3f 	movq   $0x603fa0,0x8(%rsp)
  4019f2:	60 00 
  4019f4:	89 34 24             	mov    %esi,(%rsp)
  4019f7:	8b 15 eb 24 20 00    	mov    0x2024eb(%rip),%edx        # 603ee8 <target_id>
  4019fd:	be 2a 2e 40 00       	mov    $0x402e2a,%esi
  401a02:	b8 00 00 00 00       	mov    $0x0,%eax
  401a07:	e8 74 f2 ff ff       	callq  400c80 <sprintf@plt>
  401a0c:	83 3d ed 24 20 00 00 	cmpl   $0x0,0x2024ed(%rip)        # 603f00 <notify>
  401a13:	74 78                	je     401a8d <notify_server+0x117>
  401a15:	85 db                	test   %ebx,%ebx
  401a17:	74 68                	je     401a81 <notify_server+0x10b>
  401a19:	48 8d 8c 24 10 20 00 	lea    0x2010(%rsp),%rcx
  401a20:	00 
  401a21:	4c 8d 4c 24 10       	lea    0x10(%rsp),%r9
  401a26:	41 b8 00 00 00 00    	mov    $0x0,%r8d
  401a2c:	48 8b 15 ad 24 20 00 	mov    0x2024ad(%rip),%rdx        # 603ee0 <lab>
  401a33:	48 8b 35 66 21 20 00 	mov    0x202166(%rip),%rsi        # 603ba0 <course>
  401a3a:	48 8b 3d af 24 20 00 	mov    0x2024af(%rip),%rdi        # 603ef0 <user_id>
  401a41:	e8 26 0d 00 00       	callq  40276c <driver_post>
  401a46:	85 c0                	test   %eax,%eax
  401a48:	79 1e                	jns    401a68 <notify_server+0xf2>
  401a4a:	48 8d 74 24 10       	lea    0x10(%rsp),%rsi
  401a4f:	bf 46 2e 40 00       	mov    $0x402e46,%edi
  401a54:	b8 00 00 00 00       	mov    $0x0,%eax
  401a59:	e8 22 f1 ff ff       	callq  400b80 <printf@plt>
  401a5e:	bf 01 00 00 00       	mov    $0x1,%edi
  401a63:	e8 78 f1 ff ff       	callq  400be0 <exit@plt>
  401a68:	bf 70 2f 40 00       	mov    $0x402f70,%edi
  401a6d:	e8 4e f1 ff ff       	callq  400bc0 <puts@plt>
  401a72:	bf 52 2e 40 00       	mov    $0x402e52,%edi
  401a77:	e8 44 f1 ff ff       	callq  400bc0 <puts@plt>
  401a7c:	e9 84 00 00 00       	jmpq   401b05 <notify_server+0x18f>
  401a81:	bf 5c 2e 40 00       	mov    $0x402e5c,%edi
  401a86:	e8 35 f1 ff ff       	callq  400bc0 <puts@plt>
  401a8b:	eb 78                	jmp    401b05 <notify_server+0x18f>
  401a8d:	85 db                	test   %ebx,%ebx
  401a8f:	b8 20 2e 40 00       	mov    $0x402e20,%eax
  401a94:	be 25 2e 40 00       	mov    $0x402e25,%esi
  401a99:	48 0f 44 f0          	cmove  %rax,%rsi
  401a9d:	bf a8 2f 40 00       	mov    $0x402fa8,%edi
  401aa2:	b8 00 00 00 00       	mov    $0x0,%eax
  401aa7:	e8 d4 f0 ff ff       	callq  400b80 <printf@plt>
  401aac:	48 8b 35 3d 24 20 00 	mov    0x20243d(%rip),%rsi        # 603ef0 <user_id>
  401ab3:	bf 63 2e 40 00       	mov    $0x402e63,%edi
  401ab8:	b8 00 00 00 00       	mov    $0x0,%eax
  401abd:	e8 be f0 ff ff       	callq  400b80 <printf@plt>
  401ac2:	48 8b 35 d7 20 20 00 	mov    0x2020d7(%rip),%rsi        # 603ba0 <course>
  401ac9:	bf 70 2e 40 00       	mov    $0x402e70,%edi
  401ace:	b8 00 00 00 00       	mov    $0x0,%eax
  401ad3:	e8 a8 f0 ff ff       	callq  400b80 <printf@plt>
  401ad8:	48 8b 35 01 24 20 00 	mov    0x202401(%rip),%rsi        # 603ee0 <lab>
  401adf:	bf 7c 2e 40 00       	mov    $0x402e7c,%edi
  401ae4:	b8 00 00 00 00       	mov    $0x0,%eax
  401ae9:	e8 92 f0 ff ff       	callq  400b80 <printf@plt>
  401aee:	48 8d b4 24 10 20 00 	lea    0x2010(%rsp),%rsi
  401af5:	00 
  401af6:	bf 85 2e 40 00       	mov    $0x402e85,%edi
  401afb:	b8 00 00 00 00       	mov    $0x0,%eax
  401b00:	e8 7b f0 ff ff       	callq  400b80 <printf@plt>
  401b05:	48 81 c4 10 40 00 00 	add    $0x4010,%rsp
  401b0c:	5b                   	pop    %rbx
  401b0d:	c3                   	retq   

0000000000401b0e <sigalrmhandler>:
  401b0e:	48 83 ec 08          	sub    $0x8,%rsp
  401b12:	83 3d 47 24 20 00 00 	cmpl   $0x0,0x202447(%rip)        # 603f60 <is_checker>
  401b19:	74 16                	je     401b31 <sigalrmhandler+0x23>
  401b1b:	bf 91 2e 40 00       	mov    $0x402e91,%edi
  401b20:	e8 9b f0 ff ff       	callq  400bc0 <puts@plt>
  401b25:	b8 00 00 00 00       	mov    $0x0,%eax
  401b2a:	e8 e1 fc ff ff       	callq  401810 <check_fail>
  401b2f:	eb 23                	jmp    401b54 <sigalrmhandler+0x46>
  401b31:	be 05 00 00 00       	mov    $0x5,%esi
  401b36:	bf d0 2f 40 00       	mov    $0x402fd0,%edi
  401b3b:	b8 00 00 00 00       	mov    $0x0,%eax
  401b40:	e8 3b f0 ff ff       	callq  400b80 <printf@plt>
  401b45:	be 00 00 00 00       	mov    $0x0,%esi
  401b4a:	bf 00 00 00 00       	mov    $0x0,%edi
  401b4f:	e8 22 fe ff ff       	callq  401976 <notify_server>
  401b54:	bf 01 00 00 00       	mov    $0x1,%edi
  401b59:	e8 82 f0 ff ff       	callq  400be0 <exit@plt>

0000000000401b5e <illegalhandler>:
  401b5e:	48 83 ec 08          	sub    $0x8,%rsp
  401b62:	83 3d f7 23 20 00 00 	cmpl   $0x0,0x2023f7(%rip)        # 603f60 <is_checker>
  401b69:	74 16                	je     401b81 <illegalhandler+0x23>
  401b6b:	bf 99 2e 40 00       	mov    $0x402e99,%edi
  401b70:	e8 4b f0 ff ff       	callq  400bc0 <puts@plt>
  401b75:	b8 00 00 00 00       	mov    $0x0,%eax
  401b7a:	e8 91 fc ff ff       	callq  401810 <check_fail>
  401b7f:	eb 23                	jmp    401ba4 <illegalhandler+0x46>
  401b81:	bf 08 30 40 00       	mov    $0x403008,%edi
  401b86:	e8 35 f0 ff ff       	callq  400bc0 <puts@plt>
  401b8b:	bf ad 2e 40 00       	mov    $0x402ead,%edi
  401b90:	e8 2b f0 ff ff       	callq  400bc0 <puts@plt>
  401b95:	be 00 00 00 00       	mov    $0x0,%esi
  401b9a:	bf 00 00 00 00       	mov    $0x0,%edi
  401b9f:	e8 d2 fd ff ff       	callq  401976 <notify_server>
  401ba4:	bf 01 00 00 00       	mov    $0x1,%edi
  401ba9:	e8 32 f0 ff ff       	callq  400be0 <exit@plt>

0000000000401bae <seghandler>:
  401bae:	48 83 ec 08          	sub    $0x8,%rsp
  401bb2:	83 3d a7 23 20 00 00 	cmpl   $0x0,0x2023a7(%rip)        # 603f60 <is_checker>
  401bb9:	74 16                	je     401bd1 <seghandler+0x23>
  401bbb:	bf c3 2e 40 00       	mov    $0x402ec3,%edi
  401bc0:	e8 fb ef ff ff       	callq  400bc0 <puts@plt>
  401bc5:	b8 00 00 00 00       	mov    $0x0,%eax
  401bca:	e8 41 fc ff ff       	callq  401810 <check_fail>
  401bcf:	eb 23                	jmp    401bf4 <seghandler+0x46>
  401bd1:	bf 38 30 40 00       	mov    $0x403038,%edi
  401bd6:	e8 e5 ef ff ff       	callq  400bc0 <puts@plt>
  401bdb:	bf ad 2e 40 00       	mov    $0x402ead,%edi
  401be0:	e8 db ef ff ff       	callq  400bc0 <puts@plt>
  401be5:	be 00 00 00 00       	mov    $0x0,%esi
  401bea:	bf 00 00 00 00       	mov    $0x0,%edi
  401bef:	e8 82 fd ff ff       	callq  401976 <notify_server>
  401bf4:	bf 01 00 00 00       	mov    $0x1,%edi
  401bf9:	e8 e2 ef ff ff       	callq  400be0 <exit@plt>

0000000000401bfe <bushandler>:
  401bfe:	48 83 ec 08          	sub    $0x8,%rsp
  401c02:	83 3d 57 23 20 00 00 	cmpl   $0x0,0x202357(%rip)        # 603f60 <is_checker>
  401c09:	74 16                	je     401c21 <bushandler+0x23>
  401c0b:	bf d6 2e 40 00       	mov    $0x402ed6,%edi
  401c10:	e8 ab ef ff ff       	callq  400bc0 <puts@plt>
  401c15:	b8 00 00 00 00       	mov    $0x0,%eax
  401c1a:	e8 f1 fb ff ff       	callq  401810 <check_fail>
  401c1f:	eb 23                	jmp    401c44 <bushandler+0x46>
  401c21:	bf 60 30 40 00       	mov    $0x403060,%edi
  401c26:	e8 95 ef ff ff       	callq  400bc0 <puts@plt>
  401c2b:	bf ad 2e 40 00       	mov    $0x402ead,%edi
  401c30:	e8 8b ef ff ff       	callq  400bc0 <puts@plt>
  401c35:	be 00 00 00 00       	mov    $0x0,%esi
  401c3a:	bf 00 00 00 00       	mov    $0x0,%edi
  401c3f:	e8 32 fd ff ff       	callq  401976 <notify_server>
  401c44:	bf 01 00 00 00       	mov    $0x1,%edi
  401c49:	e8 92 ef ff ff       	callq  400be0 <exit@plt>

0000000000401c4e <fail>:
  401c4e:	48 83 ec 08          	sub    $0x8,%rsp
  401c52:	83 3d 07 23 20 00 00 	cmpl   $0x0,0x202307(%rip)        # 603f60 <is_checker>
  401c59:	74 0c                	je     401c67 <fail+0x19>
  401c5b:	b8 00 00 00 00       	mov    $0x0,%eax
  401c60:	e8 ab fb ff ff       	callq  401810 <check_fail>
  401c65:	eb 0c                	jmp    401c73 <fail+0x25>
  401c67:	89 fe                	mov    %edi,%esi
  401c69:	bf 00 00 00 00       	mov    $0x0,%edi
  401c6e:	e8 03 fd ff ff       	callq  401976 <notify_server>
  401c73:	48 83 c4 08          	add    $0x8,%rsp
  401c77:	c3                   	retq   

0000000000401c78 <validate>:
  401c78:	48 89 5c 24 f0       	mov    %rbx,-0x10(%rsp)
  401c7d:	48 89 6c 24 f8       	mov    %rbp,-0x8(%rsp)
  401c82:	48 83 ec 18          	sub    $0x18,%rsp
  401c86:	89 fb                	mov    %edi,%ebx
  401c88:	83 3d d1 22 20 00 00 	cmpl   $0x0,0x2022d1(%rip)        # 603f60 <is_checker>
  401c8f:	74 65                	je     401cf6 <validate+0x7e>
  401c91:	8b 15 d5 22 20 00    	mov    0x2022d5(%rip),%edx        # 603f6c <vlevel>
  401c97:	39 fa                	cmp    %edi,%edx
  401c99:	74 19                	je     401cb4 <validate+0x3c>
  401c9b:	bf e0 2e 40 00       	mov    $0x402ee0,%edi
  401ca0:	e8 1b ef ff ff       	callq  400bc0 <puts@plt>
  401ca5:	b8 00 00 00 00       	mov    $0x0,%eax
  401caa:	e8 61 fb ff ff       	callq  401810 <check_fail>
  401caf:	e9 88 00 00 00       	jmpq   401d3c <validate+0xc4>
  401cb4:	8b 35 b6 22 20 00    	mov    0x2022b6(%rip),%esi        # 603f70 <check_level>
  401cba:	39 f2                	cmp    %esi,%edx
  401cbc:	74 1b                	je     401cd9 <validate+0x61>
  401cbe:	bf 80 30 40 00       	mov    $0x403080,%edi
  401cc3:	b8 00 00 00 00       	mov    $0x0,%eax
  401cc8:	e8 b3 ee ff ff       	callq  400b80 <printf@plt>
  401ccd:	b8 00 00 00 00       	mov    $0x0,%eax
  401cd2:	e8 39 fb ff ff       	callq  401810 <check_fail>
  401cd7:	eb 63                	jmp    401d3c <validate+0xc4>
  401cd9:	0f be 35 c4 2e 20 00 	movsbl 0x202ec4(%rip),%esi        # 604ba4 <target_prefix>
  401ce0:	b9 a0 3f 60 00       	mov    $0x603fa0,%ecx
  401ce5:	bf fe 2e 40 00       	mov    $0x402efe,%edi
  401cea:	b8 00 00 00 00       	mov    $0x0,%eax
  401cef:	e8 8c ee ff ff       	callq  400b80 <printf@plt>
  401cf4:	eb 46                	jmp    401d3c <validate+0xc4>
  401cf6:	8b 2d 70 22 20 00    	mov    0x202270(%rip),%ebp        # 603f6c <vlevel>
  401cfc:	39 fd                	cmp    %edi,%ebp
  401cfe:	74 18                	je     401d18 <validate+0xa0>
  401d00:	bf e0 2e 40 00       	mov    $0x402ee0,%edi
  401d05:	e8 b6 ee ff ff       	callq  400bc0 <puts@plt>
  401d0a:	89 de                	mov    %ebx,%esi
  401d0c:	bf 00 00 00 00       	mov    $0x0,%edi
  401d11:	e8 60 fc ff ff       	callq  401976 <notify_server>
  401d16:	eb 24                	jmp    401d3c <validate+0xc4>
  401d18:	0f be 15 85 2e 20 00 	movsbl 0x202e85(%rip),%edx        # 604ba4 <target_prefix>
  401d1f:	89 ee                	mov    %ebp,%esi
  401d21:	bf a8 30 40 00       	mov    $0x4030a8,%edi
  401d26:	b8 00 00 00 00       	mov    $0x0,%eax
  401d2b:	e8 50 ee ff ff       	callq  400b80 <printf@plt>
  401d30:	89 ee                	mov    %ebp,%esi
  401d32:	bf 01 00 00 00       	mov    $0x1,%edi
  401d37:	e8 3a fc ff ff       	callq  401976 <notify_server>
  401d3c:	48 8b 5c 24 08       	mov    0x8(%rsp),%rbx
  401d41:	48 8b 6c 24 10       	mov    0x10(%rsp),%rbp
  401d46:	48 83 c4 18          	add    $0x18,%rsp
  401d4a:	c3                   	retq   

0000000000401d4b <Gets>:
  401d4b:	41 55                	push   %r13
  401d4d:	41 54                	push   %r12
  401d4f:	55                   	push   %rbp
  401d50:	53                   	push   %rbx
  401d51:	48 83 ec 08          	sub    $0x8,%rsp
  401d55:	49 89 fd             	mov    %rdi,%r13
  401d58:	c7 05 2e 22 20 00 00 	movl   $0x0,0x20222e(%rip)        # 603f90 <gets_cnt>
  401d5f:	00 00 00 
  401d62:	48 89 fb             	mov    %rdi,%rbx
  401d65:	41 bc a0 3f 60 00    	mov    $0x603fa0,%r12d
  401d6b:	bd e0 30 40 00       	mov    $0x4030e0,%ebp
  401d70:	eb 55                	jmp    401dc7 <Gets+0x7c>
  401d72:	88 03                	mov    %al,(%rbx)
  401d74:	8b 15 16 22 20 00    	mov    0x202216(%rip),%edx        # 603f90 <gets_cnt>
  401d7a:	81 fa ff 03 00 00    	cmp    $0x3ff,%edx
  401d80:	7f 41                	jg     401dc3 <Gets+0x78>
  401d82:	41 89 c0             	mov    %eax,%r8d
  401d85:	8d 0c 52             	lea    (%rdx,%rdx,2),%ecx
  401d88:	48 63 f1             	movslq %ecx,%rsi
  401d8b:	c0 e8 04             	shr    $0x4,%al
  401d8e:	0f b6 f8             	movzbl %al,%edi
  401d91:	0f b6 7c 3d 00       	movzbl 0x0(%rbp,%rdi,1),%edi
  401d96:	41 88 3c 34          	mov    %dil,(%r12,%rsi,1)
  401d9a:	8d 71 01             	lea    0x1(%rcx),%esi
  401d9d:	48 63 f6             	movslq %esi,%rsi
  401da0:	4c 89 c0             	mov    %r8,%rax
  401da3:	83 e0 0f             	and    $0xf,%eax
  401da6:	0f b6 44 05 00       	movzbl 0x0(%rbp,%rax,1),%eax
  401dab:	41 88 04 34          	mov    %al,(%r12,%rsi,1)
  401daf:	83 c1 02             	add    $0x2,%ecx
  401db2:	48 63 c9             	movslq %ecx,%rcx
  401db5:	41 c6 04 0c 20       	movb   $0x20,(%r12,%rcx,1)
  401dba:	83 c2 01             	add    $0x1,%edx
  401dbd:	89 15 cd 21 20 00    	mov    %edx,0x2021cd(%rip)        # 603f90 <gets_cnt>
  401dc3:	48 83 c3 01          	add    $0x1,%rbx
  401dc7:	48 8b 3d aa 21 20 00 	mov    0x2021aa(%rip),%rdi        # 603f78 <infile>
  401dce:	e8 8d ee ff ff       	callq  400c60 <_IO_getc@plt>
  401dd3:	83 f8 ff             	cmp    $0xffffffffffffffff,%eax
  401dd6:	74 05                	je     401ddd <Gets+0x92>
  401dd8:	83 f8 0a             	cmp    $0xa,%eax
  401ddb:	75 95                	jne    401d72 <Gets+0x27>
  401ddd:	c6 03 00             	movb   $0x0,(%rbx)
  401de0:	8b 05 aa 21 20 00    	mov    0x2021aa(%rip),%eax        # 603f90 <gets_cnt>
  401de6:	8d 04 40             	lea    (%rax,%rax,2),%eax
  401de9:	48 98                	cltq   
  401deb:	c6 80 a0 3f 60 00 00 	movb   $0x0,0x603fa0(%rax)
  401df2:	4c 89 e8             	mov    %r13,%rax
  401df5:	48 83 c4 08          	add    $0x8,%rsp
  401df9:	5b                   	pop    %rbx
  401dfa:	5d                   	pop    %rbp
  401dfb:	41 5c                	pop    %r12
  401dfd:	41 5d                	pop    %r13
  401dff:	c3                   	retq   

0000000000401e00 <init_driver>:
  401e00:	41 54                	push   %r12
  401e02:	55                   	push   %rbp
  401e03:	53                   	push   %rbx
  401e04:	48 83 ec 10          	sub    $0x10,%rsp
  401e08:	49 89 fc             	mov    %rdi,%r12
  401e0b:	be 01 00 00 00       	mov    $0x1,%esi
  401e10:	bf 0d 00 00 00       	mov    $0xd,%edi
  401e15:	e8 b6 ee ff ff       	callq  400cd0 <signal@plt>
  401e1a:	be 01 00 00 00       	mov    $0x1,%esi
  401e1f:	bf 1d 00 00 00       	mov    $0x1d,%edi
  401e24:	e8 a7 ee ff ff       	callq  400cd0 <signal@plt>
  401e29:	be 01 00 00 00       	mov    $0x1,%esi
  401e2e:	bf 1d 00 00 00       	mov    $0x1d,%edi
  401e33:	e8 98 ee ff ff       	callq  400cd0 <signal@plt>
  401e38:	ba 00 00 00 00       	mov    $0x0,%edx
  401e3d:	be 01 00 00 00       	mov    $0x1,%esi
  401e42:	bf 02 00 00 00       	mov    $0x2,%edi
  401e47:	e8 94 ee ff ff       	callq  400ce0 <socket@plt>
  401e4c:	89 c5                	mov    %eax,%ebp
  401e4e:	85 c0                	test   %eax,%eax
  401e50:	79 62                	jns    401eb4 <init_driver+0xb4>
  401e52:	41 c7 04 24 45 72 72 	movl   $0x6f727245,(%r12)
  401e59:	6f 
  401e5a:	41 c7 44 24 04 72 3a 	movl   $0x43203a72,0x4(%r12)
  401e61:	20 43 
  401e63:	41 c7 44 24 08 6c 69 	movl   $0x6e65696c,0x8(%r12)
  401e6a:	65 6e 
  401e6c:	41 c7 44 24 0c 74 20 	movl   $0x6e752074,0xc(%r12)
  401e73:	75 6e 
  401e75:	41 c7 44 24 10 61 62 	movl   $0x656c6261,0x10(%r12)
  401e7c:	6c 65 
  401e7e:	41 c7 44 24 14 20 74 	movl   $0x206f7420,0x14(%r12)
  401e85:	6f 20 
  401e87:	41 c7 44 24 18 63 72 	movl   $0x61657263,0x18(%r12)
  401e8e:	65 61 
  401e90:	41 c7 44 24 1c 74 65 	movl   $0x73206574,0x1c(%r12)
  401e97:	20 73 
  401e99:	41 c7 44 24 20 6f 63 	movl   $0x656b636f,0x20(%r12)
  401ea0:	6b 65 
  401ea2:	66 41 c7 44 24 24 74 	movw   $0x74,0x24(%r12)
  401ea9:	00 
  401eaa:	b8 ff ff ff ff       	mov    $0xffffffff,%eax
  401eaf:	e9 56 01 00 00       	jmpq   40200a <init_driver+0x20a>
  401eb4:	bf b0 2c 40 00       	mov    $0x402cb0,%edi
  401eb9:	e8 f2 ec ff ff       	callq  400bb0 <gethostbyname@plt>
  401ebe:	48 85 c0             	test   %rax,%rax
  401ec1:	0f 85 81 00 00 00    	jne    401f48 <init_driver+0x148>
  401ec7:	41 c7 04 24 45 72 72 	movl   $0x6f727245,(%r12)
  401ece:	6f 
  401ecf:	41 c7 44 24 04 72 3a 	movl   $0x44203a72,0x4(%r12)
  401ed6:	20 44 
  401ed8:	41 c7 44 24 08 4e 53 	movl   $0x6920534e,0x8(%r12)
  401edf:	20 69 
  401ee1:	41 c7 44 24 0c 73 20 	movl   $0x6e752073,0xc(%r12)
  401ee8:	75 6e 
  401eea:	41 c7 44 24 10 61 62 	movl   $0x656c6261,0x10(%r12)
  401ef1:	6c 65 
  401ef3:	41 c7 44 24 14 20 74 	movl   $0x206f7420,0x14(%r12)
  401efa:	6f 20 
  401efc:	41 c7 44 24 18 72 65 	movl   $0x6f736572,0x18(%r12)
  401f03:	73 6f 
  401f05:	41 c7 44 24 1c 6c 76 	movl   $0x2065766c,0x1c(%r12)
  401f0c:	65 20 
  401f0e:	41 c7 44 24 20 73 65 	movl   $0x76726573,0x20(%r12)
  401f15:	72 76 
  401f17:	41 c7 44 24 24 65 72 	movl   $0x61207265,0x24(%r12)
  401f1e:	20 61 
  401f20:	41 c7 44 24 28 64 64 	movl   $0x65726464,0x28(%r12)
  401f27:	72 65 
  401f29:	66 41 c7 44 24 2c 73 	movw   $0x7373,0x2c(%r12)
  401f30:	73 
  401f31:	41 c6 44 24 2e 00    	movb   $0x0,0x2e(%r12)
  401f37:	89 ef                	mov    %ebp,%edi
  401f39:	e8 62 ec ff ff       	callq  400ba0 <close@plt>
  401f3e:	b8 ff ff ff ff       	mov    $0xffffffff,%eax
  401f43:	e9 c2 00 00 00       	jmpq   40200a <init_driver+0x20a>
  401f48:	48 c7 04 24 00 00 00 	movq   $0x0,(%rsp)
  401f4f:	00 
  401f50:	48 c7 44 24 08 00 00 	movq   $0x0,0x8(%rsp)
  401f57:	00 00 
  401f59:	66 c7 04 24 02 00    	movw   $0x2,(%rsp)
  401f5f:	48 63 50 14          	movslq 0x14(%rax),%rdx
  401f63:	48 8d 74 24 04       	lea    0x4(%rsp),%rsi
  401f68:	48 8b 40 18          	mov    0x18(%rax),%rax
  401f6c:	48 8b 38             	mov    (%rax),%rdi
  401f6f:	e8 fc ec ff ff       	callq  400c70 <bcopy@plt>
  401f74:	66 c7 44 24 02 3c 9a 	movw   $0x9a3c,0x2(%rsp)
  401f7b:	ba 10 00 00 00       	mov    $0x10,%edx
  401f80:	48 89 e6             	mov    %rsp,%rsi
  401f83:	89 ef                	mov    %ebp,%edi
  401f85:	e8 16 ed ff ff       	callq  400ca0 <connect@plt>
  401f8a:	85 c0                	test   %eax,%eax
  401f8c:	79 63                	jns    401ff1 <init_driver+0x1f1>
  401f8e:	41 c7 04 24 45 72 72 	movl   $0x6f727245,(%r12)
  401f95:	6f 
  401f96:	41 c7 44 24 04 72 3a 	movl   $0x55203a72,0x4(%r12)
  401f9d:	20 55 
  401f9f:	41 c7 44 24 08 6e 61 	movl   $0x6c62616e,0x8(%r12)
  401fa6:	62 6c 
  401fa8:	41 c7 44 24 0c 65 20 	movl   $0x6f742065,0xc(%r12)
  401faf:	74 6f 
  401fb1:	41 c7 44 24 10 20 63 	movl   $0x6e6f6320,0x10(%r12)
  401fb8:	6f 6e 
  401fba:	41 c7 44 24 14 6e 65 	movl   $0x7463656e,0x14(%r12)
  401fc1:	63 74 
  401fc3:	41 c7 44 24 18 20 74 	movl   $0x206f7420,0x18(%r12)
  401fca:	6f 20 
  401fcc:	41 c7 44 24 1c 73 65 	movl   $0x76726573,0x1c(%r12)
  401fd3:	72 76 
  401fd5:	66 41 c7 44 24 20 65 	movw   $0x7265,0x20(%r12)
  401fdc:	72 
  401fdd:	41 c6 44 24 22 00    	movb   $0x0,0x22(%r12)
  401fe3:	89 ef                	mov    %ebp,%edi
  401fe5:	e8 b6 eb ff ff       	callq  400ba0 <close@plt>
  401fea:	b8 ff ff ff ff       	mov    $0xffffffff,%eax
  401fef:	eb 19                	jmp    40200a <init_driver+0x20a>
  401ff1:	89 ef                	mov    %ebp,%edi
  401ff3:	e8 a8 eb ff ff       	callq  400ba0 <close@plt>
  401ff8:	66 41 c7 04 24 4f 4b 	movw   $0x4b4f,(%r12)
  401fff:	41 c6 44 24 02 00    	movb   $0x0,0x2(%r12)
  402005:	b8 00 00 00 00       	mov    $0x0,%eax
  40200a:	48 83 c4 10          	add    $0x10,%rsp
  40200e:	5b                   	pop    %rbx
  40200f:	5d                   	pop    %rbp
  402010:	41 5c                	pop    %r12
  402012:	c3                   	retq   

0000000000402013 <init_timeout>:
  402013:	53                   	push   %rbx
  402014:	89 fb                	mov    %edi,%ebx
  402016:	85 ff                	test   %edi,%edi
  402018:	74 1e                	je     402038 <init_timeout+0x25>
  40201a:	be da 27 40 00       	mov    $0x4027da,%esi
  40201f:	bf 0e 00 00 00       	mov    $0xe,%edi
  402024:	e8 a7 ec ff ff       	callq  400cd0 <signal@plt>
  402029:	85 db                	test   %ebx,%ebx
  40202b:	bf 00 00 00 00       	mov    $0x0,%edi
  402030:	0f 49 fb             	cmovns %ebx,%edi
  402033:	e8 b8 ec ff ff       	callq  400cf0 <alarm@plt>
  402038:	5b                   	pop    %rbx
  402039:	c3                   	retq   

000000000040203a <rio_readlineb>:
  40203a:	41 57                	push   %r15
  40203c:	41 56                	push   %r14
  40203e:	41 55                	push   %r13
  402040:	41 54                	push   %r12
  402042:	55                   	push   %rbp
  402043:	53                   	push   %rbx
  402044:	48 83 ec 28          	sub    $0x28,%rsp
  402048:	48 89 fb             	mov    %rdi,%rbx
  40204b:	48 89 14 24          	mov    %rdx,(%rsp)
  40204f:	49 89 f7             	mov    %rsi,%r15
  402052:	48 83 fa 01          	cmp    $0x1,%rdx
  402056:	0f 86 be 00 00 00    	jbe    40211a <rio_readlineb+0xe0>
  40205c:	4c 8d 6f 10          	lea    0x10(%rdi),%r13
  402060:	4d 89 ec             	mov    %r13,%r12
  402063:	41 be 01 00 00 00    	mov    $0x1,%r14d
  402069:	eb 38                	jmp    4020a3 <rio_readlineb+0x69>
  40206b:	ba 00 20 00 00       	mov    $0x2000,%edx
  402070:	4c 89 ee             	mov    %r13,%rsi
  402073:	8b 3b                	mov    (%rbx),%edi
  402075:	e8 96 eb ff ff       	callq  400c10 <read@plt>
  40207a:	89 43 04             	mov    %eax,0x4(%rbx)
  40207d:	85 c0                	test   %eax,%eax
  40207f:	79 16                	jns    402097 <rio_readlineb+0x5d>
  402081:	e8 7a ec ff ff       	callq  400d00 <__errno_location@plt>
  402086:	83 38 04             	cmpl   $0x4,(%rax)
  402089:	74 18                	je     4020a3 <rio_readlineb+0x69>
  40208b:	48 c7 c2 ff ff ff ff 	mov    $0xffffffffffffffff,%rdx
  402092:	e9 a4 00 00 00       	jmpq   40213b <rio_readlineb+0x101>
  402097:	85 c0                	test   %eax,%eax
  402099:	0f 84 97 00 00 00    	je     402136 <rio_readlineb+0xfc>
  40209f:	4c 89 63 08          	mov    %r12,0x8(%rbx)
  4020a3:	8b 6b 04             	mov    0x4(%rbx),%ebp
  4020a6:	85 ed                	test   %ebp,%ebp
  4020a8:	7e c1                	jle    40206b <rio_readlineb+0x31>
  4020aa:	85 ed                	test   %ebp,%ebp
  4020ac:	0f 85 8e 00 00 00    	jne    402140 <rio_readlineb+0x106>
  4020b2:	48 63 c5             	movslq %ebp,%rax
  4020b5:	48 89 44 24 08       	mov    %rax,0x8(%rsp)
  4020ba:	48 8b 73 08          	mov    0x8(%rbx),%rsi
  4020be:	48 89 c2             	mov    %rax,%rdx
  4020c1:	48 8d 7c 24 1f       	lea    0x1f(%rsp),%rdi
  4020c6:	e8 f5 eb ff ff       	callq  400cc0 <memcpy@plt>
  4020cb:	48 8b 44 24 08       	mov    0x8(%rsp),%rax
  4020d0:	48 01 43 08          	add    %rax,0x8(%rbx)
  4020d4:	29 6b 04             	sub    %ebp,0x4(%rbx)
  4020d7:	89 c2                	mov    %eax,%edx
  4020d9:	83 f8 01             	cmp    $0x1,%eax
  4020dc:	75 15                	jne    4020f3 <rio_readlineb+0xb9>
  4020de:	0f b6 44 24 1f       	movzbl 0x1f(%rsp),%eax
  4020e3:	41 88 07             	mov    %al,(%r15)
  4020e6:	49 83 c7 01          	add    $0x1,%r15
  4020ea:	80 7c 24 1f 0a       	cmpb   $0xa,0x1f(%rsp)
  4020ef:	75 1d                	jne    40210e <rio_readlineb+0xd4>
  4020f1:	eb 2d                	jmp    402120 <rio_readlineb+0xe6>
  4020f3:	4c 89 f1             	mov    %r14,%rcx
  4020f6:	48 c7 c0 ff ff ff ff 	mov    $0xffffffffffffffff,%rax
  4020fd:	85 d2                	test   %edx,%edx
  4020ff:	75 26                	jne    402127 <rio_readlineb+0xed>
  402101:	b8 00 00 00 00       	mov    $0x0,%eax
  402106:	48 83 f9 01          	cmp    $0x1,%rcx
  40210a:	75 14                	jne    402120 <rio_readlineb+0xe6>
  40210c:	eb 19                	jmp    402127 <rio_readlineb+0xed>
  40210e:	49 83 c6 01          	add    $0x1,%r14
  402112:	4c 39 34 24          	cmp    %r14,(%rsp)
  402116:	77 8b                	ja     4020a3 <rio_readlineb+0x69>
  402118:	eb 06                	jmp    402120 <rio_readlineb+0xe6>
  40211a:	41 be 01 00 00 00    	mov    $0x1,%r14d
  402120:	41 c6 07 00          	movb   $0x0,(%r15)
  402124:	4c 89 f0             	mov    %r14,%rax
  402127:	48 83 c4 28          	add    $0x28,%rsp
  40212b:	5b                   	pop    %rbx
  40212c:	5d                   	pop    %rbp
  40212d:	41 5c                	pop    %r12
  40212f:	41 5d                	pop    %r13
  402131:	41 5e                	pop    %r14
  402133:	41 5f                	pop    %r15
  402135:	c3                   	retq   
  402136:	ba 00 00 00 00       	mov    $0x0,%edx
  40213b:	4c 89 f1             	mov    %r14,%rcx
  40213e:	eb b6                	jmp    4020f6 <rio_readlineb+0xbc>
  402140:	48 8b 43 08          	mov    0x8(%rbx),%rax
  402144:	0f b6 00             	movzbl (%rax),%eax
  402147:	88 44 24 1f          	mov    %al,0x1f(%rsp)
  40214b:	48 83 43 08 01       	addq   $0x1,0x8(%rbx)
  402150:	83 6b 04 01          	subl   $0x1,0x4(%rbx)
  402154:	eb 88                	jmp    4020de <rio_readlineb+0xa4>

0000000000402156 <submitr>:
  402156:	41 57                	push   %r15
  402158:	41 56                	push   %r14
  40215a:	41 55                	push   %r13
  40215c:	41 54                	push   %r12
  40215e:	55                   	push   %rbp
  40215f:	53                   	push   %rbx
  402160:	48 81 ec 68 a0 00 00 	sub    $0xa068,%rsp
  402167:	49 89 ff             	mov    %rdi,%r15
  40216a:	41 89 f4             	mov    %esi,%r12d
  40216d:	48 89 54 24 08       	mov    %rdx,0x8(%rsp)
  402172:	48 89 4c 24 10       	mov    %rcx,0x10(%rsp)
  402177:	4c 89 44 24 18       	mov    %r8,0x18(%rsp)
  40217c:	4c 89 cd             	mov    %r9,%rbp
  40217f:	4c 8b b4 24 a0 a0 00 	mov    0xa0a0(%rsp),%r14
  402186:	00 
  402187:	c7 84 24 3c 20 00 00 	movl   $0x0,0x203c(%rsp)
  40218e:	00 00 00 00 
  402192:	ba 00 00 00 00       	mov    $0x0,%edx
  402197:	be 01 00 00 00       	mov    $0x1,%esi
  40219c:	bf 02 00 00 00       	mov    $0x2,%edi
  4021a1:	e8 3a eb ff ff       	callq  400ce0 <socket@plt>
  4021a6:	41 89 c5             	mov    %eax,%r13d
  4021a9:	85 c0                	test   %eax,%eax
  4021ab:	79 19                	jns    4021c6 <submitr+0x70>
  4021ad:	be f0 30 40 00       	mov    $0x4030f0,%esi
  4021b2:	b9 26 00 00 00       	mov    $0x26,%ecx
  4021b7:	4c 89 f7             	mov    %r14,%rdi
  4021ba:	f3 a4                	rep movsb %ds:(%rsi),%es:(%rdi)
  4021bc:	b8 ff ff ff ff       	mov    $0xffffffff,%eax
  4021c1:	e9 2e 05 00 00       	jmpq   4026f4 <submitr+0x59e>
  4021c6:	4c 89 ff             	mov    %r15,%rdi
  4021c9:	e8 e2 e9 ff ff       	callq  400bb0 <gethostbyname@plt>
  4021ce:	48 85 c0             	test   %rax,%rax
  4021d1:	75 21                	jne    4021f4 <submitr+0x9e>
  4021d3:	be 18 31 40 00       	mov    $0x403118,%esi
  4021d8:	b9 2f 00 00 00       	mov    $0x2f,%ecx
  4021dd:	4c 89 f7             	mov    %r14,%rdi
  4021e0:	f3 a4                	rep movsb %ds:(%rsi),%es:(%rdi)
  4021e2:	44 89 ef             	mov    %r13d,%edi
  4021e5:	e8 b6 e9 ff ff       	callq  400ba0 <close@plt>
  4021ea:	b8 ff ff ff ff       	mov    $0xffffffff,%eax
  4021ef:	e9 00 05 00 00       	jmpq   4026f4 <submitr+0x59e>
  4021f4:	48 8d 9c 24 50 a0 00 	lea    0xa050(%rsp),%rbx
  4021fb:	00 
  4021fc:	48 c7 03 00 00 00 00 	movq   $0x0,(%rbx)
  402203:	48 c7 43 08 00 00 00 	movq   $0x0,0x8(%rbx)
  40220a:	00 
  40220b:	66 c7 84 24 50 a0 00 	movw   $0x2,0xa050(%rsp)
  402212:	00 02 00 
  402215:	48 63 50 14          	movslq 0x14(%rax),%rdx
  402219:	48 8d 73 04          	lea    0x4(%rbx),%rsi
  40221d:	48 8b 40 18          	mov    0x18(%rax),%rax
  402221:	48 8b 38             	mov    (%rax),%rdi
  402224:	e8 47 ea ff ff       	callq  400c70 <bcopy@plt>
  402229:	66 41 c1 cc 08       	ror    $0x8,%r12w
  40222e:	66 44 89 a4 24 52 a0 	mov    %r12w,0xa052(%rsp)
  402235:	00 00 
  402237:	ba 10 00 00 00       	mov    $0x10,%edx
  40223c:	48 89 de             	mov    %rbx,%rsi
  40223f:	44 89 ef             	mov    %r13d,%edi
  402242:	e8 59 ea ff ff       	callq  400ca0 <connect@plt>
  402247:	85 c0                	test   %eax,%eax
  402249:	79 21                	jns    40226c <submitr+0x116>
  40224b:	be 48 31 40 00       	mov    $0x403148,%esi
  402250:	b9 27 00 00 00       	mov    $0x27,%ecx
  402255:	4c 89 f7             	mov    %r14,%rdi
  402258:	f3 a4                	rep movsb %ds:(%rsi),%es:(%rdi)
  40225a:	44 89 ef             	mov    %r13d,%edi
  40225d:	e8 3e e9 ff ff       	callq  400ba0 <close@plt>
  402262:	b8 ff ff ff ff       	mov    $0xffffffff,%eax
  402267:	e9 88 04 00 00       	jmpq   4026f4 <submitr+0x59e>
  40226c:	48 c7 c2 ff ff ff ff 	mov    $0xffffffffffffffff,%rdx
  402273:	48 89 ef             	mov    %rbp,%rdi
  402276:	b8 00 00 00 00       	mov    $0x0,%eax
  40227b:	48 89 d1             	mov    %rdx,%rcx
  40227e:	f2 ae                	repnz scas %es:(%rdi),%al
  402280:	48 89 cb             	mov    %rcx,%rbx
  402283:	48 f7 d3             	not    %rbx
  402286:	48 8b 7c 24 08       	mov    0x8(%rsp),%rdi
  40228b:	48 89 d1             	mov    %rdx,%rcx
  40228e:	f2 ae                	repnz scas %es:(%rdi),%al
  402290:	48 89 ce             	mov    %rcx,%rsi
  402293:	48 8b 7c 24 10       	mov    0x10(%rsp),%rdi
  402298:	48 89 d1             	mov    %rdx,%rcx
  40229b:	f2 ae                	repnz scas %es:(%rdi),%al
  40229d:	49 89 c8             	mov    %rcx,%r8
  4022a0:	49 f7 d0             	not    %r8
  4022a3:	48 8b 7c 24 18       	mov    0x18(%rsp),%rdi
  4022a8:	48 89 d1             	mov    %rdx,%rcx
  4022ab:	f2 ae                	repnz scas %es:(%rdi),%al
  4022ad:	49 29 f0             	sub    %rsi,%r8
  4022b0:	49 29 c8             	sub    %rcx,%r8
  4022b3:	48 8d 5c 5b fd       	lea    -0x3(%rbx,%rbx,2),%rbx
  4022b8:	49 8d 44 18 7b       	lea    0x7b(%r8,%rbx,1),%rax
  4022bd:	48 3d 00 20 00 00    	cmp    $0x2000,%rax
  4022c3:	0f 86 81 00 00 00    	jbe    40234a <submitr+0x1f4>
  4022c9:	41 c7 06 45 72 72 6f 	movl   $0x6f727245,(%r14)
  4022d0:	41 c7 46 04 72 3a 20 	movl   $0x52203a72,0x4(%r14)
  4022d7:	52 
  4022d8:	41 c7 46 08 65 73 75 	movl   $0x6c757365,0x8(%r14)
  4022df:	6c 
  4022e0:	41 c7 46 0c 74 20 73 	movl   $0x74732074,0xc(%r14)
  4022e7:	74 
  4022e8:	41 c7 46 10 72 69 6e 	movl   $0x676e6972,0x10(%r14)
  4022ef:	67 
  4022f0:	41 c7 46 14 20 74 6f 	movl   $0x6f6f7420,0x14(%r14)
  4022f7:	6f 
  4022f8:	41 c7 46 18 20 6c 61 	movl   $0x72616c20,0x18(%r14)
  4022ff:	72 
  402300:	41 c7 46 1c 67 65 2e 	movl   $0x202e6567,0x1c(%r14)
  402307:	20 
  402308:	41 c7 46 20 49 6e 63 	movl   $0x72636e49,0x20(%r14)
  40230f:	72 
  402310:	41 c7 46 24 65 61 73 	movl   $0x65736165,0x24(%r14)
  402317:	65 
  402318:	41 c7 46 28 20 53 55 	movl   $0x42555320,0x28(%r14)
  40231f:	42 
  402320:	41 c7 46 2c 4d 49 54 	movl   $0x5254494d,0x2c(%r14)
  402327:	52 
  402328:	41 c7 46 30 5f 4d 41 	movl   $0x58414d5f,0x30(%r14)
  40232f:	58 
  402330:	41 c7 46 34 42 55 46 	movl   $0x465542,0x34(%r14)
  402337:	00 
  402338:	44 89 ef             	mov    %r13d,%edi
  40233b:	e8 60 e8 ff ff       	callq  400ba0 <close@plt>
  402340:	b8 ff ff ff ff       	mov    $0xffffffff,%eax
  402345:	e9 aa 03 00 00       	jmpq   4026f4 <submitr+0x59e>
  40234a:	48 8d 94 24 40 40 00 	lea    0x4040(%rsp),%rdx
  402351:	00 
  402352:	b9 00 04 00 00       	mov    $0x400,%ecx
  402357:	b8 00 00 00 00       	mov    $0x0,%eax
  40235c:	48 89 d7             	mov    %rdx,%rdi
  40235f:	f3 48 ab             	rep stos %rax,%es:(%rdi)
  402362:	48 89 ef             	mov    %rbp,%rdi
  402365:	48 c7 c1 ff ff ff ff 	mov    $0xffffffffffffffff,%rcx
  40236c:	f2 ae                	repnz scas %es:(%rdi),%al
  40236e:	48 f7 d1             	not    %rcx
  402371:	83 e9 01             	sub    $0x1,%ecx
  402374:	0f 84 8c 03 00 00    	je     402706 <submitr+0x5b0>
  40237a:	48 89 d3             	mov    %rdx,%rbx
  40237d:	44 8d 61 ff          	lea    -0x1(%rcx),%r12d
  402381:	0f b6 45 00          	movzbl 0x0(%rbp),%eax
  402385:	3c 2a                	cmp    $0x2a,%al
  402387:	74 24                	je     4023ad <submitr+0x257>
  402389:	3c 2d                	cmp    $0x2d,%al
  40238b:	74 20                	je     4023ad <submitr+0x257>
  40238d:	3c 2e                	cmp    $0x2e,%al
  40238f:	74 1c                	je     4023ad <submitr+0x257>
  402391:	3c 5f                	cmp    $0x5f,%al
  402393:	74 18                	je     4023ad <submitr+0x257>
  402395:	8d 50 d0             	lea    -0x30(%rax),%edx
  402398:	80 fa 09             	cmp    $0x9,%dl
  40239b:	76 10                	jbe    4023ad <submitr+0x257>
  40239d:	8d 50 bf             	lea    -0x41(%rax),%edx
  4023a0:	80 fa 19             	cmp    $0x19,%dl
  4023a3:	76 08                	jbe    4023ad <submitr+0x257>
  4023a5:	8d 50 9f             	lea    -0x61(%rax),%edx
  4023a8:	80 fa 19             	cmp    $0x19,%dl
  4023ab:	77 08                	ja     4023b5 <submitr+0x25f>
  4023ad:	88 03                	mov    %al,(%rbx)
  4023af:	48 83 c3 01          	add    $0x1,%rbx
  4023b3:	eb 4b                	jmp    402400 <submitr+0x2aa>
  4023b5:	3c 20                	cmp    $0x20,%al
  4023b7:	75 09                	jne    4023c2 <submitr+0x26c>
  4023b9:	c6 03 2b             	movb   $0x2b,(%rbx)
  4023bc:	48 83 c3 01          	add    $0x1,%rbx
  4023c0:	eb 3e                	jmp    402400 <submitr+0x2aa>
  4023c2:	8d 50 e0             	lea    -0x20(%rax),%edx
  4023c5:	80 fa 5f             	cmp    $0x5f,%dl
  4023c8:	76 04                	jbe    4023ce <submitr+0x278>
  4023ca:	3c 09                	cmp    $0x9,%al
  4023cc:	75 48                	jne    402416 <submitr+0x2c0>
  4023ce:	0f b6 d0             	movzbl %al,%edx
  4023d1:	be 08 33 40 00       	mov    $0x403308,%esi
  4023d6:	48 8d 7c 24 20       	lea    0x20(%rsp),%rdi
  4023db:	b8 00 00 00 00       	mov    $0x0,%eax
  4023e0:	e8 9b e8 ff ff       	callq  400c80 <sprintf@plt>
  4023e5:	0f b6 44 24 20       	movzbl 0x20(%rsp),%eax
  4023ea:	88 03                	mov    %al,(%rbx)
  4023ec:	0f b6 44 24 21       	movzbl 0x21(%rsp),%eax
  4023f1:	88 43 01             	mov    %al,0x1(%rbx)
  4023f4:	0f b6 44 24 22       	movzbl 0x22(%rsp),%eax
  4023f9:	88 43 02             	mov    %al,0x2(%rbx)
  4023fc:	48 83 c3 03          	add    $0x3,%rbx
  402400:	45 85 e4             	test   %r12d,%r12d
  402403:	0f 84 fd 02 00 00    	je     402706 <submitr+0x5b0>
  402409:	48 83 c5 01          	add    $0x1,%rbp
  40240d:	41 83 ec 01          	sub    $0x1,%r12d
  402411:	e9 6b ff ff ff       	jmpq   402381 <submitr+0x22b>
  402416:	be 70 31 40 00       	mov    $0x403170,%esi
  40241b:	b9 43 00 00 00       	mov    $0x43,%ecx
  402420:	4c 89 f7             	mov    %r14,%rdi
  402423:	f3 a4                	rep movsb %ds:(%rsi),%es:(%rdi)
  402425:	44 89 ef             	mov    %r13d,%edi
  402428:	e8 73 e7 ff ff       	callq  400ba0 <close@plt>
  40242d:	b8 ff ff ff ff       	mov    $0xffffffff,%eax
  402432:	e9 bd 02 00 00       	jmpq   4026f4 <submitr+0x59e>
  402437:	48 01 c5             	add    %rax,%rbp
  40243a:	48 89 da             	mov    %rbx,%rdx
  40243d:	48 89 ee             	mov    %rbp,%rsi
  402440:	44 89 ef             	mov    %r13d,%edi
  402443:	e8 08 e9 ff ff       	callq  400d50 <write@plt>
  402448:	48 85 c0             	test   %rax,%rax
  40244b:	7f 0d                	jg     40245a <submitr+0x304>
  40244d:	e8 ae e8 ff ff       	callq  400d00 <__errno_location@plt>
  402452:	83 38 04             	cmpl   $0x4,(%rax)
  402455:	75 0d                	jne    402464 <submitr+0x30e>
  402457:	4c 89 f8             	mov    %r15,%rax
  40245a:	48 29 c3             	sub    %rax,%rbx
  40245d:	75 d8                	jne    402437 <submitr+0x2e1>
  40245f:	4d 85 e4             	test   %r12,%r12
  402462:	79 21                	jns    402485 <submitr+0x32f>
  402464:	be b8 31 40 00       	mov    $0x4031b8,%esi
  402469:	b9 33 00 00 00       	mov    $0x33,%ecx
  40246e:	4c 89 f7             	mov    %r14,%rdi
  402471:	f3 a4                	rep movsb %ds:(%rsi),%es:(%rdi)
  402473:	44 89 ef             	mov    %r13d,%edi
  402476:	e8 25 e7 ff ff       	callq  400ba0 <close@plt>
  40247b:	b8 ff ff ff ff       	mov    $0xffffffff,%eax
  402480:	e9 6f 02 00 00       	jmpq   4026f4 <submitr+0x59e>
  402485:	44 89 ac 24 40 80 00 	mov    %r13d,0x8040(%rsp)
  40248c:	00 
  40248d:	c7 84 24 44 80 00 00 	movl   $0x0,0x8044(%rsp)
  402494:	00 00 00 00 
  402498:	48 8d bc 24 40 80 00 	lea    0x8040(%rsp),%rdi
  40249f:	00 
  4024a0:	48 8d 47 10          	lea    0x10(%rdi),%rax
  4024a4:	48 89 84 24 48 80 00 	mov    %rax,0x8048(%rsp)
  4024ab:	00 
  4024ac:	48 8d b4 24 40 60 00 	lea    0x6040(%rsp),%rsi
  4024b3:	00 
  4024b4:	ba 00 20 00 00       	mov    $0x2000,%edx
  4024b9:	e8 7c fb ff ff       	callq  40203a <rio_readlineb>
  4024be:	48 85 c0             	test   %rax,%rax
  4024c1:	7f 21                	jg     4024e4 <submitr+0x38e>
  4024c3:	be f0 31 40 00       	mov    $0x4031f0,%esi
  4024c8:	b9 3d 00 00 00       	mov    $0x3d,%ecx
  4024cd:	4c 89 f7             	mov    %r14,%rdi
  4024d0:	f3 a4                	rep movsb %ds:(%rsi),%es:(%rdi)
  4024d2:	44 89 ef             	mov    %r13d,%edi
  4024d5:	e8 c6 e6 ff ff       	callq  400ba0 <close@plt>
  4024da:	b8 ff ff ff ff       	mov    $0xffffffff,%eax
  4024df:	e9 10 02 00 00       	jmpq   4026f4 <submitr+0x59e>
  4024e4:	4c 8d bc 24 40 60 00 	lea    0x6040(%rsp),%r15
  4024eb:	00 
  4024ec:	48 8d 8c 24 3c 20 00 	lea    0x203c(%rsp),%rcx
  4024f3:	00 
  4024f4:	48 8d 94 24 40 20 00 	lea    0x2040(%rsp),%rdx
  4024fb:	00 
  4024fc:	4c 8d 44 24 30       	lea    0x30(%rsp),%r8
  402501:	be 0f 33 40 00       	mov    $0x40330f,%esi
  402506:	4c 89 ff             	mov    %r15,%rdi
  402509:	b8 00 00 00 00       	mov    $0x0,%eax
  40250e:	e8 bd e6 ff ff       	callq  400bd0 <__isoc99_sscanf@plt>
  402513:	48 8d 9c 24 40 60 00 	lea    0x6040(%rsp),%rbx
  40251a:	00 
  40251b:	bd 26 33 40 00       	mov    $0x403326,%ebp
  402520:	4c 8d a4 24 40 80 00 	lea    0x8040(%rsp),%r12
  402527:	00 
  402528:	e9 a2 00 00 00       	jmpq   4025cf <submitr+0x479>
  40252d:	ba 00 20 00 00       	mov    $0x2000,%edx
  402532:	48 89 de             	mov    %rbx,%rsi
  402535:	4c 89 e7             	mov    %r12,%rdi
  402538:	e8 fd fa ff ff       	callq  40203a <rio_readlineb>
  40253d:	48 85 c0             	test   %rax,%rax
  402540:	0f 8f 89 00 00 00    	jg     4025cf <submitr+0x479>
  402546:	41 c7 06 45 72 72 6f 	movl   $0x6f727245,(%r14)
  40254d:	41 c7 46 04 72 3a 20 	movl   $0x43203a72,0x4(%r14)
  402554:	43 
  402555:	41 c7 46 08 6c 69 65 	movl   $0x6e65696c,0x8(%r14)
  40255c:	6e 
  40255d:	41 c7 46 0c 74 20 75 	movl   $0x6e752074,0xc(%r14)
  402564:	6e 
  402565:	41 c7 46 10 61 62 6c 	movl   $0x656c6261,0x10(%r14)
  40256c:	65 
  40256d:	41 c7 46 14 20 74 6f 	movl   $0x206f7420,0x14(%r14)
  402574:	20 
  402575:	41 c7 46 18 72 65 61 	movl   $0x64616572,0x18(%r14)
  40257c:	64 
  40257d:	41 c7 46 1c 20 68 65 	movl   $0x61656820,0x1c(%r14)
  402584:	61 
  402585:	41 c7 46 20 64 65 72 	movl   $0x73726564,0x20(%r14)
  40258c:	73 
  40258d:	41 c7 46 24 20 66 72 	movl   $0x6f726620,0x24(%r14)
  402594:	6f 
  402595:	41 c7 46 28 6d 20 74 	movl   $0x6874206d,0x28(%r14)
  40259c:	68 
  40259d:	41 c7 46 2c 65 20 72 	movl   $0x65722065,0x2c(%r14)
  4025a4:	65 
  4025a5:	41 c7 46 30 73 75 6c 	movl   $0x746c7573,0x30(%r14)
  4025ac:	74 
  4025ad:	41 c7 46 34 20 73 65 	movl   $0x72657320,0x34(%r14)
  4025b4:	72 
  4025b5:	41 c7 46 38 76 65 72 	movl   $0x726576,0x38(%r14)
  4025bc:	00 
  4025bd:	44 89 ef             	mov    %r13d,%edi
  4025c0:	e8 db e5 ff ff       	callq  400ba0 <close@plt>
  4025c5:	b8 ff ff ff ff       	mov    $0xffffffff,%eax
  4025ca:	e9 25 01 00 00       	jmpq   4026f4 <submitr+0x59e>
  4025cf:	0f b6 03             	movzbl (%rbx),%eax
  4025d2:	3a 45 00             	cmp    0x0(%rbp),%al
  4025d5:	0f 85 52 ff ff ff    	jne    40252d <submitr+0x3d7>
  4025db:	0f b6 43 01          	movzbl 0x1(%rbx),%eax
  4025df:	3a 45 01             	cmp    0x1(%rbp),%al
  4025e2:	0f 85 45 ff ff ff    	jne    40252d <submitr+0x3d7>
  4025e8:	0f b6 43 02          	movzbl 0x2(%rbx),%eax
  4025ec:	3a 45 02             	cmp    0x2(%rbp),%al
  4025ef:	0f 85 38 ff ff ff    	jne    40252d <submitr+0x3d7>
  4025f5:	48 8d b4 24 40 60 00 	lea    0x6040(%rsp),%rsi
  4025fc:	00 
  4025fd:	48 8d bc 24 40 80 00 	lea    0x8040(%rsp),%rdi
  402604:	00 
  402605:	ba 00 20 00 00       	mov    $0x2000,%edx
  40260a:	e8 2b fa ff ff       	callq  40203a <rio_readlineb>
  40260f:	48 85 c0             	test   %rax,%rax
  402612:	7f 21                	jg     402635 <submitr+0x4df>
  402614:	be 30 32 40 00       	mov    $0x403230,%esi
  402619:	b9 3f 00 00 00       	mov    $0x3f,%ecx
  40261e:	4c 89 f7             	mov    %r14,%rdi
  402621:	f3 a4                	rep movsb %ds:(%rsi),%es:(%rdi)
  402623:	44 89 ef             	mov    %r13d,%edi
  402626:	e8 75 e5 ff ff       	callq  400ba0 <close@plt>
  40262b:	b8 ff ff ff ff       	mov    $0xffffffff,%eax
  402630:	e9 bf 00 00 00       	jmpq   4026f4 <submitr+0x59e>
  402635:	8b 94 24 3c 20 00 00 	mov    0x203c(%rsp),%edx
  40263c:	81 fa c8 00 00 00    	cmp    $0xc8,%edx
  402642:	74 29                	je     40266d <submitr+0x517>
  402644:	48 8d 4c 24 30       	lea    0x30(%rsp),%rcx
  402649:	be 70 32 40 00       	mov    $0x403270,%esi
  40264e:	4c 89 f7             	mov    %r14,%rdi
  402651:	b8 00 00 00 00       	mov    $0x0,%eax
  402656:	e8 25 e6 ff ff       	callq  400c80 <sprintf@plt>
  40265b:	44 89 ef             	mov    %r13d,%edi
  40265e:	e8 3d e5 ff ff       	callq  400ba0 <close@plt>
  402663:	b8 ff ff ff ff       	mov    $0xffffffff,%eax
  402668:	e9 87 00 00 00       	jmpq   4026f4 <submitr+0x59e>
  40266d:	4c 89 fe             	mov    %r15,%rsi
  402670:	4c 89 f7             	mov    %r14,%rdi
  402673:	e8 98 e6 ff ff       	callq  400d10 <strcpy@plt>
  402678:	44 89 ef             	mov    %r13d,%edi
  40267b:	e8 20 e5 ff ff       	callq  400ba0 <close@plt>
  402680:	4c 89 f2             	mov    %r14,%rdx
  402683:	41 0f b6 06          	movzbl (%r14),%eax
  402687:	b9 20 33 40 00       	mov    $0x403320,%ecx
  40268c:	0f b6 19             	movzbl (%rcx),%ebx
  40268f:	39 d8                	cmp    %ebx,%eax
  402691:	75 1e                	jne    4026b1 <submitr+0x55b>
  402693:	41 0f b6 5e 01       	movzbl 0x1(%r14),%ebx
  402698:	3a 59 01             	cmp    0x1(%rcx),%bl
  40269b:	75 14                	jne    4026b1 <submitr+0x55b>
  40269d:	41 0f b6 5e 02       	movzbl 0x2(%r14),%ebx
  4026a2:	3a 59 02             	cmp    0x2(%rcx),%bl
  4026a5:	75 0a                	jne    4026b1 <submitr+0x55b>
  4026a7:	41 0f b6 5e 03       	movzbl 0x3(%r14),%ebx
  4026ac:	3a 59 03             	cmp    0x3(%rcx),%bl
  4026af:	74 37                	je     4026e8 <submitr+0x592>
  4026b1:	4c 89 f6             	mov    %r14,%rsi
  4026b4:	bf 24 33 40 00       	mov    $0x403324,%edi
  4026b9:	b9 05 00 00 00       	mov    $0x5,%ecx
  4026be:	f3 a6                	repz cmpsb %es:(%rdi),%ds:(%rsi)
  4026c0:	0f 97 c3             	seta   %bl
  4026c3:	0f 92 c1             	setb   %cl
  4026c6:	38 cb                	cmp    %cl,%bl
  4026c8:	74 1e                	je     4026e8 <submitr+0x592>
  4026ca:	b9 29 33 40 00       	mov    $0x403329,%ecx
  4026cf:	0f b6 19             	movzbl (%rcx),%ebx
  4026d2:	39 d8                	cmp    %ebx,%eax
  4026d4:	75 19                	jne    4026ef <submitr+0x599>
  4026d6:	0f b6 42 01          	movzbl 0x1(%rdx),%eax
  4026da:	3a 41 01             	cmp    0x1(%rcx),%al
  4026dd:	75 10                	jne    4026ef <submitr+0x599>
  4026df:	0f b6 42 02          	movzbl 0x2(%rdx),%eax
  4026e3:	3a 41 02             	cmp    0x2(%rcx),%al
  4026e6:	75 07                	jne    4026ef <submitr+0x599>
  4026e8:	b8 00 00 00 00       	mov    $0x0,%eax
  4026ed:	eb 05                	jmp    4026f4 <submitr+0x59e>
  4026ef:	b8 ff ff ff ff       	mov    $0xffffffff,%eax
  4026f4:	48 81 c4 68 a0 00 00 	add    $0xa068,%rsp
  4026fb:	5b                   	pop    %rbx
  4026fc:	5d                   	pop    %rbp
  4026fd:	41 5c                	pop    %r12
  4026ff:	41 5d                	pop    %r13
  402701:	41 5e                	pop    %r14
  402703:	41 5f                	pop    %r15
  402705:	c3                   	retq   
  402706:	48 8d 9c 24 40 60 00 	lea    0x6040(%rsp),%rbx
  40270d:	00 
  40270e:	4d 89 f9             	mov    %r15,%r9
  402711:	4c 8d 84 24 40 40 00 	lea    0x4040(%rsp),%r8
  402718:	00 
  402719:	48 8b 4c 24 08       	mov    0x8(%rsp),%rcx
  40271e:	48 8b 54 24 10       	mov    0x10(%rsp),%rdx
  402723:	be a0 32 40 00       	mov    $0x4032a0,%esi
  402728:	48 89 df             	mov    %rbx,%rdi
  40272b:	b8 00 00 00 00       	mov    $0x0,%eax
  402730:	e8 4b e5 ff ff       	callq  400c80 <sprintf@plt>
  402735:	48 89 df             	mov    %rbx,%rdi
  402738:	b8 00 00 00 00       	mov    $0x0,%eax
  40273d:	48 c7 c1 ff ff ff ff 	mov    $0xffffffffffffffff,%rcx
  402744:	f2 ae                	repnz scas %es:(%rdi),%al
  402746:	48 f7 d1             	not    %rcx
  402749:	49 89 cc             	mov    %rcx,%r12
  40274c:	49 83 ec 01          	sub    $0x1,%r12
  402750:	0f 84 2f fd ff ff    	je     402485 <submitr+0x32f>
  402756:	4c 89 e3             	mov    %r12,%rbx
  402759:	48 8d ac 24 40 60 00 	lea    0x6040(%rsp),%rbp
  402760:	00 
  402761:	41 bf 00 00 00 00    	mov    $0x0,%r15d
  402767:	e9 ce fc ff ff       	jmpq   40243a <submitr+0x2e4>

000000000040276c <driver_post>:
  40276c:	53                   	push   %rbx
  40276d:	48 83 ec 10          	sub    $0x10,%rsp
  402771:	4c 89 cb             	mov    %r9,%rbx
  402774:	45 85 c0             	test   %r8d,%r8d
  402777:	74 22                	je     40279b <driver_post+0x2f>
  402779:	48 89 ce             	mov    %rcx,%rsi
  40277c:	bf 2c 33 40 00       	mov    $0x40332c,%edi
  402781:	b8 00 00 00 00       	mov    $0x0,%eax
  402786:	e8 f5 e3 ff ff       	callq  400b80 <printf@plt>
  40278b:	66 c7 03 4f 4b       	movw   $0x4b4f,(%rbx)
  402790:	c6 43 02 00          	movb   $0x0,0x2(%rbx)
  402794:	b8 00 00 00 00       	mov    $0x0,%eax
  402799:	eb 39                	jmp    4027d4 <driver_post+0x68>
  40279b:	48 85 ff             	test   %rdi,%rdi
  40279e:	74 26                	je     4027c6 <driver_post+0x5a>
  4027a0:	80 3f 00             	cmpb   $0x0,(%rdi)
  4027a3:	74 21                	je     4027c6 <driver_post+0x5a>
  4027a5:	4c 89 0c 24          	mov    %r9,(%rsp)
  4027a9:	49 89 c9             	mov    %rcx,%r9
  4027ac:	49 89 d0             	mov    %rdx,%r8
  4027af:	48 89 f9             	mov    %rdi,%rcx
  4027b2:	48 89 f2             	mov    %rsi,%rdx
  4027b5:	be 9a 3c 00 00       	mov    $0x3c9a,%esi
  4027ba:	bf b0 2c 40 00       	mov    $0x402cb0,%edi
  4027bf:	e8 92 f9 ff ff       	callq  402156 <submitr>
  4027c4:	eb 0e                	jmp    4027d4 <driver_post+0x68>
  4027c6:	66 c7 03 4f 4b       	movw   $0x4b4f,(%rbx)
  4027cb:	c6 43 02 00          	movb   $0x0,0x2(%rbx)
  4027cf:	b8 00 00 00 00       	mov    $0x0,%eax
  4027d4:	48 83 c4 10          	add    $0x10,%rsp
  4027d8:	5b                   	pop    %rbx
  4027d9:	c3                   	retq   

00000000004027da <sigalrm_handler>:
  4027da:	48 83 ec 08          	sub    $0x8,%rsp
  4027de:	ba 00 00 00 00       	mov    $0x0,%edx
  4027e3:	be e0 32 40 00       	mov    $0x4032e0,%esi
  4027e8:	48 8b 3d 59 17 20 00 	mov    0x201759(%rip),%rdi        # 603f48 <stderr@@GLIBC_2.2.5>
  4027ef:	b8 00 00 00 00       	mov    $0x0,%eax
  4027f4:	e8 47 e5 ff ff       	callq  400d40 <fprintf@plt>
  4027f9:	bf 01 00 00 00       	mov    $0x1,%edi
  4027fe:	e8 dd e3 ff ff       	callq  400be0 <exit@plt>
  402803:	90                   	nop

0000000000402804 <check>:
  402804:	89 f8                	mov    %edi,%eax
  402806:	c1 e8 1c             	shr    $0x1c,%eax
  402809:	85 c0                	test   %eax,%eax
  40280b:	74 27                	je     402834 <check+0x30>
  40280d:	40 80 ff 0a          	cmp    $0xa,%dil
  402811:	74 21                	je     402834 <check+0x30>
  402813:	48 89 fa             	mov    %rdi,%rdx
  402816:	0f b6 c6             	movzbl %dh,%eax
  402819:	83 f8 0a             	cmp    $0xa,%eax
  40281c:	74 16                	je     402834 <check+0x30>
  40281e:	89 f8                	mov    %edi,%eax
  402820:	c1 e8 10             	shr    $0x10,%eax
  402823:	3c 0a                	cmp    $0xa,%al
  402825:	74 0d                	je     402834 <check+0x30>
  402827:	c1 ef 18             	shr    $0x18,%edi
  40282a:	83 ff 0a             	cmp    $0xa,%edi
  40282d:	0f 95 c0             	setne  %al
  402830:	0f b6 c0             	movzbl %al,%eax
  402833:	c3                   	retq   
  402834:	b8 00 00 00 00       	mov    $0x0,%eax
  402839:	c3                   	retq   

000000000040283a <gencookie>:
  40283a:	53                   	push   %rbx
  40283b:	83 c7 01             	add    $0x1,%edi
  40283e:	e8 0d e4 ff ff       	callq  400c50 <srandom@plt>
  402843:	e8 e8 e4 ff ff       	callq  400d30 <random@plt>
  402848:	89 c3                	mov    %eax,%ebx
  40284a:	89 c7                	mov    %eax,%edi
  40284c:	e8 b3 ff ff ff       	callq  402804 <check>
  402851:	85 c0                	test   %eax,%eax
  402853:	74 ee                	je     402843 <gencookie+0x9>
  402855:	89 d8                	mov    %ebx,%eax
  402857:	5b                   	pop    %rbx
  402858:	c3                   	retq   
  402859:	90                   	nop
  40285a:	90                   	nop
  40285b:	90                   	nop
  40285c:	90                   	nop
  40285d:	90                   	nop
  40285e:	90                   	nop
  40285f:	90                   	nop

0000000000402860 <__libc_csu_fini>:
  402860:	f3 c3                	repz retq 
  402862:	66 66 66 66 66 2e 0f 	data32 data32 data32 data32 nopw %cs:0x0(%rax,%rax,1)
  402869:	1f 84 00 00 00 00 00 

0000000000402870 <__libc_csu_init>:
  402870:	48 89 6c 24 d8       	mov    %rbp,-0x28(%rsp)
  402875:	4c 89 64 24 e0       	mov    %r12,-0x20(%rsp)
  40287a:	48 8d 2d 1b 10 20 00 	lea    0x20101b(%rip),%rbp        # 60389c <__init_array_end>
  402881:	4c 8d 25 14 10 20 00 	lea    0x201014(%rip),%r12        # 60389c <__init_array_end>
  402888:	4c 89 6c 24 e8       	mov    %r13,-0x18(%rsp)
  40288d:	4c 89 74 24 f0       	mov    %r14,-0x10(%rsp)
  402892:	4c 89 7c 24 f8       	mov    %r15,-0x8(%rsp)
  402897:	48 89 5c 24 d0       	mov    %rbx,-0x30(%rsp)
  40289c:	48 83 ec 38          	sub    $0x38,%rsp
  4028a0:	4c 29 e5             	sub    %r12,%rbp
  4028a3:	41 89 fd             	mov    %edi,%r13d
  4028a6:	49 89 f6             	mov    %rsi,%r14
  4028a9:	48 c1 fd 03          	sar    $0x3,%rbp
  4028ad:	49 89 d7             	mov    %rdx,%r15
  4028b0:	e8 a3 e2 ff ff       	callq  400b58 <_init>
  4028b5:	48 85 ed             	test   %rbp,%rbp
  4028b8:	74 1c                	je     4028d6 <__libc_csu_init+0x66>
  4028ba:	31 db                	xor    %ebx,%ebx
  4028bc:	0f 1f 40 00          	nopl   0x0(%rax)
  4028c0:	4c 89 fa             	mov    %r15,%rdx
  4028c3:	4c 89 f6             	mov    %r14,%rsi
  4028c6:	44 89 ef             	mov    %r13d,%edi
  4028c9:	41 ff 14 dc          	callq  *(%r12,%rbx,8)
  4028cd:	48 83 c3 01          	add    $0x1,%rbx
  4028d1:	48 39 eb             	cmp    %rbp,%rbx
  4028d4:	72 ea                	jb     4028c0 <__libc_csu_init+0x50>
  4028d6:	48 8b 5c 24 08       	mov    0x8(%rsp),%rbx
  4028db:	48 8b 6c 24 10       	mov    0x10(%rsp),%rbp
  4028e0:	4c 8b 64 24 18       	mov    0x18(%rsp),%r12
  4028e5:	4c 8b 6c 24 20       	mov    0x20(%rsp),%r13
  4028ea:	4c 8b 74 24 28       	mov    0x28(%rsp),%r14
  4028ef:	4c 8b 7c 24 30       	mov    0x30(%rsp),%r15
  4028f4:	48 83 c4 38          	add    $0x38,%rsp
  4028f8:	c3                   	retq   
  4028f9:	90                   	nop
  4028fa:	90                   	nop
  4028fb:	90                   	nop
  4028fc:	90                   	nop
  4028fd:	90                   	nop
  4028fe:	90                   	nop
  4028ff:	90                   	nop

0000000000402900 <__do_global_ctors_aux>:
  402900:	55                   	push   %rbp
  402901:	48 89 e5             	mov    %rsp,%rbp
  402904:	53                   	push   %rbx
  402905:	48 83 ec 08          	sub    $0x8,%rsp
  402909:	48 8b 05 90 0f 20 00 	mov    0x200f90(%rip),%rax        # 6038a0 <__CTOR_LIST__>
  402910:	48 83 f8 ff          	cmp    $0xffffffffffffffff,%rax
  402914:	74 19                	je     40292f <__do_global_ctors_aux+0x2f>
  402916:	bb a0 38 60 00       	mov    $0x6038a0,%ebx
  40291b:	0f 1f 44 00 00       	nopl   0x0(%rax,%rax,1)
  402920:	48 83 eb 08          	sub    $0x8,%rbx
  402924:	ff d0                	callq  *%rax
  402926:	48 8b 03             	mov    (%rbx),%rax
  402929:	48 83 f8 ff          	cmp    $0xffffffffffffffff,%rax
  40292d:	75 f1                	jne    402920 <__do_global_ctors_aux+0x20>
  40292f:	48 83 c4 08          	add    $0x8,%rsp
  402933:	5b                   	pop    %rbx
  402934:	c9                   	leaveq 
  402935:	c3                   	retq   
  402936:	90                   	nop
  402937:	90                   	nop

Disassembly of section .fini:

0000000000402938 <_fini>:
  402938:	48 83 ec 08          	sub    $0x8,%rsp
  40293c:	e8 9f e4 ff ff       	callq  400de0 <__do_global_dtors_aux>
  402941:	48 83 c4 08          	add    $0x8,%rsp
  402945:	c3                   	retq   
