
rtarget:     file format elf64-x86-64


Disassembly of section .init:

0000000000400b58 <_init>:
  400b58:	48 83 ec 08          	sub    $0x8,%rsp
  400b5c:	e8 5b 02 00 00       	callq  400dbc <call_gmon_start>
  400b61:	e8 ea 02 00 00       	callq  400e50 <frame_dummy>
  400b66:	e8 b5 1e 00 00       	callq  402a20 <__do_global_ctors_aux>
  400b6b:	48 83 c4 08          	add    $0x8,%rsp
  400b6f:	c3                   	retq   

Disassembly of section .plt:

0000000000400b70 <printf@plt-0x10>:
  400b70:	ff 35 52 36 20 00    	pushq  0x203652(%rip)        # 6041c8 <_GLOBAL_OFFSET_TABLE_+0x8>
  400b76:	ff 25 54 36 20 00    	jmpq   *0x203654(%rip)        # 6041d0 <_GLOBAL_OFFSET_TABLE_+0x10>
  400b7c:	0f 1f 40 00          	nopl   0x0(%rax)

0000000000400b80 <printf@plt>:
  400b80:	ff 25 52 36 20 00    	jmpq   *0x203652(%rip)        # 6041d8 <_GLOBAL_OFFSET_TABLE_+0x18>
  400b86:	68 00 00 00 00       	pushq  $0x0
  400b8b:	e9 e0 ff ff ff       	jmpq   400b70 <_init+0x18>

0000000000400b90 <memset@plt>:
  400b90:	ff 25 4a 36 20 00    	jmpq   *0x20364a(%rip)        # 6041e0 <_GLOBAL_OFFSET_TABLE_+0x20>
  400b96:	68 01 00 00 00       	pushq  $0x1
  400b9b:	e9 d0 ff ff ff       	jmpq   400b70 <_init+0x18>

0000000000400ba0 <close@plt>:
  400ba0:	ff 25 42 36 20 00    	jmpq   *0x203642(%rip)        # 6041e8 <_GLOBAL_OFFSET_TABLE_+0x28>
  400ba6:	68 02 00 00 00       	pushq  $0x2
  400bab:	e9 c0 ff ff ff       	jmpq   400b70 <_init+0x18>

0000000000400bb0 <gethostbyname@plt>:
  400bb0:	ff 25 3a 36 20 00    	jmpq   *0x20363a(%rip)        # 6041f0 <_GLOBAL_OFFSET_TABLE_+0x30>
  400bb6:	68 03 00 00 00       	pushq  $0x3
  400bbb:	e9 b0 ff ff ff       	jmpq   400b70 <_init+0x18>

0000000000400bc0 <puts@plt>:
  400bc0:	ff 25 32 36 20 00    	jmpq   *0x203632(%rip)        # 6041f8 <_GLOBAL_OFFSET_TABLE_+0x38>
  400bc6:	68 04 00 00 00       	pushq  $0x4
  400bcb:	e9 a0 ff ff ff       	jmpq   400b70 <_init+0x18>

0000000000400bd0 <__isoc99_sscanf@plt>:
  400bd0:	ff 25 2a 36 20 00    	jmpq   *0x20362a(%rip)        # 604200 <_GLOBAL_OFFSET_TABLE_+0x40>
  400bd6:	68 05 00 00 00       	pushq  $0x5
  400bdb:	e9 90 ff ff ff       	jmpq   400b70 <_init+0x18>

0000000000400be0 <exit@plt>:
  400be0:	ff 25 22 36 20 00    	jmpq   *0x203622(%rip)        # 604208 <_GLOBAL_OFFSET_TABLE_+0x48>
  400be6:	68 06 00 00 00       	pushq  $0x6
  400beb:	e9 80 ff ff ff       	jmpq   400b70 <_init+0x18>

0000000000400bf0 <strcasecmp@plt>:
  400bf0:	ff 25 1a 36 20 00    	jmpq   *0x20361a(%rip)        # 604210 <_GLOBAL_OFFSET_TABLE_+0x50>
  400bf6:	68 07 00 00 00       	pushq  $0x7
  400bfb:	e9 70 ff ff ff       	jmpq   400b70 <_init+0x18>

0000000000400c00 <getopt@plt>:
  400c00:	ff 25 12 36 20 00    	jmpq   *0x203612(%rip)        # 604218 <_GLOBAL_OFFSET_TABLE_+0x58>
  400c06:	68 08 00 00 00       	pushq  $0x8
  400c0b:	e9 60 ff ff ff       	jmpq   400b70 <_init+0x18>

0000000000400c10 <read@plt>:
  400c10:	ff 25 0a 36 20 00    	jmpq   *0x20360a(%rip)        # 604220 <_GLOBAL_OFFSET_TABLE_+0x60>
  400c16:	68 09 00 00 00       	pushq  $0x9
  400c1b:	e9 50 ff ff ff       	jmpq   400b70 <_init+0x18>

0000000000400c20 <strncmp@plt>:
  400c20:	ff 25 02 36 20 00    	jmpq   *0x203602(%rip)        # 604228 <_GLOBAL_OFFSET_TABLE_+0x68>
  400c26:	68 0a 00 00 00       	pushq  $0xa
  400c2b:	e9 40 ff ff ff       	jmpq   400b70 <_init+0x18>

0000000000400c30 <fopen@plt>:
  400c30:	ff 25 fa 35 20 00    	jmpq   *0x2035fa(%rip)        # 604230 <_GLOBAL_OFFSET_TABLE_+0x70>
  400c36:	68 0b 00 00 00       	pushq  $0xb
  400c3b:	e9 30 ff ff ff       	jmpq   400b70 <_init+0x18>

0000000000400c40 <__libc_start_main@plt>:
  400c40:	ff 25 f2 35 20 00    	jmpq   *0x2035f2(%rip)        # 604238 <_GLOBAL_OFFSET_TABLE_+0x78>
  400c46:	68 0c 00 00 00       	pushq  $0xc
  400c4b:	e9 20 ff ff ff       	jmpq   400b70 <_init+0x18>

0000000000400c50 <srandom@plt>:
  400c50:	ff 25 ea 35 20 00    	jmpq   *0x2035ea(%rip)        # 604240 <_GLOBAL_OFFSET_TABLE_+0x80>
  400c56:	68 0d 00 00 00       	pushq  $0xd
  400c5b:	e9 10 ff ff ff       	jmpq   400b70 <_init+0x18>

0000000000400c60 <_IO_getc@plt>:
  400c60:	ff 25 e2 35 20 00    	jmpq   *0x2035e2(%rip)        # 604248 <_GLOBAL_OFFSET_TABLE_+0x88>
  400c66:	68 0e 00 00 00       	pushq  $0xe
  400c6b:	e9 00 ff ff ff       	jmpq   400b70 <_init+0x18>

0000000000400c70 <bcopy@plt>:
  400c70:	ff 25 da 35 20 00    	jmpq   *0x2035da(%rip)        # 604250 <_GLOBAL_OFFSET_TABLE_+0x90>
  400c76:	68 0f 00 00 00       	pushq  $0xf
  400c7b:	e9 f0 fe ff ff       	jmpq   400b70 <_init+0x18>

0000000000400c80 <sprintf@plt>:
  400c80:	ff 25 d2 35 20 00    	jmpq   *0x2035d2(%rip)        # 604258 <_GLOBAL_OFFSET_TABLE_+0x98>
  400c86:	68 10 00 00 00       	pushq  $0x10
  400c8b:	e9 e0 fe ff ff       	jmpq   400b70 <_init+0x18>

0000000000400c90 <strtol@plt>:
  400c90:	ff 25 ca 35 20 00    	jmpq   *0x2035ca(%rip)        # 604260 <_GLOBAL_OFFSET_TABLE_+0xa0>
  400c96:	68 11 00 00 00       	pushq  $0x11
  400c9b:	e9 d0 fe ff ff       	jmpq   400b70 <_init+0x18>

0000000000400ca0 <connect@plt>:
  400ca0:	ff 25 c2 35 20 00    	jmpq   *0x2035c2(%rip)        # 604268 <_GLOBAL_OFFSET_TABLE_+0xa8>
  400ca6:	68 12 00 00 00       	pushq  $0x12
  400cab:	e9 c0 fe ff ff       	jmpq   400b70 <_init+0x18>

0000000000400cb0 <gethostname@plt>:
  400cb0:	ff 25 ba 35 20 00    	jmpq   *0x2035ba(%rip)        # 604270 <_GLOBAL_OFFSET_TABLE_+0xb0>
  400cb6:	68 13 00 00 00       	pushq  $0x13
  400cbb:	e9 b0 fe ff ff       	jmpq   400b70 <_init+0x18>

0000000000400cc0 <memcpy@plt>:
  400cc0:	ff 25 b2 35 20 00    	jmpq   *0x2035b2(%rip)        # 604278 <_GLOBAL_OFFSET_TABLE_+0xb8>
  400cc6:	68 14 00 00 00       	pushq  $0x14
  400ccb:	e9 a0 fe ff ff       	jmpq   400b70 <_init+0x18>

0000000000400cd0 <signal@plt>:
  400cd0:	ff 25 aa 35 20 00    	jmpq   *0x2035aa(%rip)        # 604280 <_GLOBAL_OFFSET_TABLE_+0xc0>
  400cd6:	68 15 00 00 00       	pushq  $0x15
  400cdb:	e9 90 fe ff ff       	jmpq   400b70 <_init+0x18>

0000000000400ce0 <socket@plt>:
  400ce0:	ff 25 a2 35 20 00    	jmpq   *0x2035a2(%rip)        # 604288 <_GLOBAL_OFFSET_TABLE_+0xc8>
  400ce6:	68 16 00 00 00       	pushq  $0x16
  400ceb:	e9 80 fe ff ff       	jmpq   400b70 <_init+0x18>

0000000000400cf0 <alarm@plt>:
  400cf0:	ff 25 9a 35 20 00    	jmpq   *0x20359a(%rip)        # 604290 <_GLOBAL_OFFSET_TABLE_+0xd0>
  400cf6:	68 17 00 00 00       	pushq  $0x17
  400cfb:	e9 70 fe ff ff       	jmpq   400b70 <_init+0x18>

0000000000400d00 <__errno_location@plt>:
  400d00:	ff 25 92 35 20 00    	jmpq   *0x203592(%rip)        # 604298 <_GLOBAL_OFFSET_TABLE_+0xd8>
  400d06:	68 18 00 00 00       	pushq  $0x18
  400d0b:	e9 60 fe ff ff       	jmpq   400b70 <_init+0x18>

0000000000400d10 <strcpy@plt>:
  400d10:	ff 25 8a 35 20 00    	jmpq   *0x20358a(%rip)        # 6042a0 <_GLOBAL_OFFSET_TABLE_+0xe0>
  400d16:	68 19 00 00 00       	pushq  $0x19
  400d1b:	e9 50 fe ff ff       	jmpq   400b70 <_init+0x18>

0000000000400d20 <munmap@plt>:
  400d20:	ff 25 82 35 20 00    	jmpq   *0x203582(%rip)        # 6042a8 <_GLOBAL_OFFSET_TABLE_+0xe8>
  400d26:	68 1a 00 00 00       	pushq  $0x1a
  400d2b:	e9 40 fe ff ff       	jmpq   400b70 <_init+0x18>

0000000000400d30 <random@plt>:
  400d30:	ff 25 7a 35 20 00    	jmpq   *0x20357a(%rip)        # 6042b0 <_GLOBAL_OFFSET_TABLE_+0xf0>
  400d36:	68 1b 00 00 00       	pushq  $0x1b
  400d3b:	e9 30 fe ff ff       	jmpq   400b70 <_init+0x18>

0000000000400d40 <fprintf@plt>:
  400d40:	ff 25 72 35 20 00    	jmpq   *0x203572(%rip)        # 6042b8 <_GLOBAL_OFFSET_TABLE_+0xf8>
  400d46:	68 1c 00 00 00       	pushq  $0x1c
  400d4b:	e9 20 fe ff ff       	jmpq   400b70 <_init+0x18>

0000000000400d50 <write@plt>:
  400d50:	ff 25 6a 35 20 00    	jmpq   *0x20356a(%rip)        # 6042c0 <_GLOBAL_OFFSET_TABLE_+0x100>
  400d56:	68 1d 00 00 00       	pushq  $0x1d
  400d5b:	e9 10 fe ff ff       	jmpq   400b70 <_init+0x18>

0000000000400d60 <strtoul@plt>:
  400d60:	ff 25 62 35 20 00    	jmpq   *0x203562(%rip)        # 6042c8 <_GLOBAL_OFFSET_TABLE_+0x108>
  400d66:	68 1e 00 00 00       	pushq  $0x1e
  400d6b:	e9 00 fe ff ff       	jmpq   400b70 <_init+0x18>

0000000000400d70 <mmap@plt>:
  400d70:	ff 25 5a 35 20 00    	jmpq   *0x20355a(%rip)        # 6042d0 <_GLOBAL_OFFSET_TABLE_+0x110>
  400d76:	68 1f 00 00 00       	pushq  $0x1f
  400d7b:	e9 f0 fd ff ff       	jmpq   400b70 <_init+0x18>

0000000000400d80 <time@plt>:
  400d80:	ff 25 52 35 20 00    	jmpq   *0x203552(%rip)        # 6042d8 <_GLOBAL_OFFSET_TABLE_+0x118>
  400d86:	68 20 00 00 00       	pushq  $0x20
  400d8b:	e9 e0 fd ff ff       	jmpq   400b70 <_init+0x18>

Disassembly of section .text:

0000000000400d90 <_start>:
  400d90:	31 ed                	xor    %ebp,%ebp
  400d92:	49 89 d1             	mov    %rdx,%r9
  400d95:	5e                   	pop    %rsi
  400d96:	48 89 e2             	mov    %rsp,%rdx
  400d99:	48 83 e4 f0          	and    $0xfffffffffffffff0,%rsp
  400d9d:	50                   	push   %rax
  400d9e:	54                   	push   %rsp
  400d9f:	49 c7 c0 80 29 40 00 	mov    $0x402980,%r8
  400da6:	48 c7 c1 90 29 40 00 	mov    $0x402990,%rcx
  400dad:	48 c7 c7 51 10 40 00 	mov    $0x401051,%rdi
  400db4:	e8 87 fe ff ff       	callq  400c40 <__libc_start_main@plt>
  400db9:	f4                   	hlt    
  400dba:	90                   	nop
  400dbb:	90                   	nop

0000000000400dbc <call_gmon_start>:
  400dbc:	48 83 ec 08          	sub    $0x8,%rsp
  400dc0:	48 8b 05 f1 33 20 00 	mov    0x2033f1(%rip),%rax        # 6041b8 <_DYNAMIC+0x190>
  400dc7:	48 85 c0             	test   %rax,%rax
  400dca:	74 02                	je     400dce <call_gmon_start+0x12>
  400dcc:	ff d0                	callq  *%rax
  400dce:	48 83 c4 08          	add    $0x8,%rsp
  400dd2:	c3                   	retq   
  400dd3:	90                   	nop
  400dd4:	90                   	nop
  400dd5:	90                   	nop
  400dd6:	90                   	nop
  400dd7:	90                   	nop
  400dd8:	90                   	nop
  400dd9:	90                   	nop
  400dda:	90                   	nop
  400ddb:	90                   	nop
  400ddc:	90                   	nop
  400ddd:	90                   	nop
  400dde:	90                   	nop
  400ddf:	90                   	nop

0000000000400de0 <__do_global_dtors_aux>:
  400de0:	55                   	push   %rbp
  400de1:	48 89 e5             	mov    %rsp,%rbp
  400de4:	53                   	push   %rbx
  400de5:	48 83 ec 08          	sub    $0x8,%rsp
  400de9:	80 3d c0 38 20 00 00 	cmpb   $0x0,0x2038c0(%rip)        # 6046b0 <completed.6364>
  400df0:	75 4b                	jne    400e3d <__do_global_dtors_aux+0x5d>
  400df2:	bb 18 40 60 00       	mov    $0x604018,%ebx
  400df7:	48 8b 05 ba 38 20 00 	mov    0x2038ba(%rip),%rax        # 6046b8 <dtor_idx.6366>
  400dfe:	48 81 eb 10 40 60 00 	sub    $0x604010,%rbx
  400e05:	48 c1 fb 03          	sar    $0x3,%rbx
  400e09:	48 83 eb 01          	sub    $0x1,%rbx
  400e0d:	48 39 d8             	cmp    %rbx,%rax
  400e10:	73 24                	jae    400e36 <__do_global_dtors_aux+0x56>
  400e12:	66 0f 1f 44 00 00    	nopw   0x0(%rax,%rax,1)
  400e18:	48 83 c0 01          	add    $0x1,%rax
  400e1c:	48 89 05 95 38 20 00 	mov    %rax,0x203895(%rip)        # 6046b8 <dtor_idx.6366>
  400e23:	ff 14 c5 10 40 60 00 	callq  *0x604010(,%rax,8)
  400e2a:	48 8b 05 87 38 20 00 	mov    0x203887(%rip),%rax        # 6046b8 <dtor_idx.6366>
  400e31:	48 39 d8             	cmp    %rbx,%rax
  400e34:	72 e2                	jb     400e18 <__do_global_dtors_aux+0x38>
  400e36:	c6 05 73 38 20 00 01 	movb   $0x1,0x203873(%rip)        # 6046b0 <completed.6364>
  400e3d:	48 83 c4 08          	add    $0x8,%rsp
  400e41:	5b                   	pop    %rbx
  400e42:	c9                   	leaveq 
  400e43:	c3                   	retq   
  400e44:	66 66 66 2e 0f 1f 84 	data32 data32 nopw %cs:0x0(%rax,%rax,1)
  400e4b:	00 00 00 00 00 

0000000000400e50 <frame_dummy>:
  400e50:	48 83 3d c8 31 20 00 	cmpq   $0x0,0x2031c8(%rip)        # 604020 <__JCR_END__>
  400e57:	00 
  400e58:	55                   	push   %rbp
  400e59:	48 89 e5             	mov    %rsp,%rbp
  400e5c:	74 12                	je     400e70 <frame_dummy+0x20>
  400e5e:	b8 00 00 00 00       	mov    $0x0,%eax
  400e63:	48 85 c0             	test   %rax,%rax
  400e66:	74 08                	je     400e70 <frame_dummy+0x20>
  400e68:	bf 20 40 60 00       	mov    $0x604020,%edi
  400e6d:	c9                   	leaveq 
  400e6e:	ff e0                	jmpq   *%rax
  400e70:	c9                   	leaveq 
  400e71:	c3                   	retq   
  400e72:	90                   	nop
  400e73:	90                   	nop
  400e74:	90                   	nop
  400e75:	90                   	nop
  400e76:	90                   	nop
  400e77:	90                   	nop
  400e78:	90                   	nop
  400e79:	90                   	nop
  400e7a:	90                   	nop
  400e7b:	90                   	nop
  400e7c:	90                   	nop
  400e7d:	90                   	nop
  400e7e:	90                   	nop
  400e7f:	90                   	nop

0000000000400e80 <usage>:
  400e80:	48 83 ec 08          	sub    $0x8,%rsp
  400e84:	48 89 fe             	mov    %rdi,%rsi
  400e87:	83 3d 32 38 20 00 00 	cmpl   $0x0,0x203832(%rip)        # 6046c0 <is_checker>
  400e8e:	74 39                	je     400ec9 <usage+0x49>
  400e90:	bf 80 2a 40 00       	mov    $0x402a80,%edi
  400e95:	b8 00 00 00 00       	mov    $0x0,%eax
  400e9a:	e8 e1 fc ff ff       	callq  400b80 <printf@plt>
  400e9f:	bf b8 2a 40 00       	mov    $0x402ab8,%edi
  400ea4:	e8 17 fd ff ff       	callq  400bc0 <puts@plt>
  400ea9:	bf 30 2c 40 00       	mov    $0x402c30,%edi
  400eae:	e8 0d fd ff ff       	callq  400bc0 <puts@plt>
  400eb3:	bf e0 2a 40 00       	mov    $0x402ae0,%edi
  400eb8:	e8 03 fd ff ff       	callq  400bc0 <puts@plt>
  400ebd:	bf 4a 2c 40 00       	mov    $0x402c4a,%edi
  400ec2:	e8 f9 fc ff ff       	callq  400bc0 <puts@plt>
  400ec7:	eb 2d                	jmp    400ef6 <usage+0x76>
  400ec9:	bf 66 2c 40 00       	mov    $0x402c66,%edi
  400ece:	b8 00 00 00 00       	mov    $0x0,%eax
  400ed3:	e8 a8 fc ff ff       	callq  400b80 <printf@plt>
  400ed8:	bf 08 2b 40 00       	mov    $0x402b08,%edi
  400edd:	e8 de fc ff ff       	callq  400bc0 <puts@plt>
  400ee2:	bf 30 2b 40 00       	mov    $0x402b30,%edi
  400ee7:	e8 d4 fc ff ff       	callq  400bc0 <puts@plt>
  400eec:	bf 84 2c 40 00       	mov    $0x402c84,%edi
  400ef1:	e8 ca fc ff ff       	callq  400bc0 <puts@plt>
  400ef6:	bf 00 00 00 00       	mov    $0x0,%edi
  400efb:	e8 e0 fc ff ff       	callq  400be0 <exit@plt>

0000000000400f00 <initialize_target>:
  400f00:	55                   	push   %rbp
  400f01:	53                   	push   %rbx
  400f02:	48 81 ec 08 21 00 00 	sub    $0x2108,%rsp
  400f09:	89 f3                	mov    %esi,%ebx
  400f0b:	89 3d bf 37 20 00    	mov    %edi,0x2037bf(%rip)        # 6046d0 <check_level>
  400f11:	8b 3d 31 37 20 00    	mov    0x203731(%rip),%edi        # 604648 <target_id>
  400f17:	e8 3e 1a 00 00       	callq  40295a <gencookie>
  400f1c:	89 05 a2 37 20 00    	mov    %eax,0x2037a2(%rip)        # 6046c4 <cookie>
  400f22:	89 c7                	mov    %eax,%edi
  400f24:	e8 31 1a 00 00       	callq  40295a <gencookie>
  400f29:	89 05 99 37 20 00    	mov    %eax,0x203799(%rip)        # 6046c8 <authkey>
  400f2f:	8b 3d 13 37 20 00    	mov    0x203713(%rip),%edi        # 604648 <target_id>
  400f35:	83 c7 01             	add    $0x1,%edi
  400f38:	e8 13 fd ff ff       	callq  400c50 <srandom@plt>
  400f3d:	e8 ee fd ff ff       	callq  400d30 <random@plt>
  400f42:	89 c7                	mov    %eax,%edi
  400f44:	e8 df 02 00 00       	callq  401228 <scramble>
  400f49:	89 c5                	mov    %eax,%ebp
  400f4b:	b8 00 00 00 00       	mov    $0x0,%eax
  400f50:	85 db                	test   %ebx,%ebx
  400f52:	74 16                	je     400f6a <initialize_target+0x6a>
  400f54:	bf 00 00 00 00       	mov    $0x0,%edi
  400f59:	e8 22 fe ff ff       	callq  400d80 <time@plt>
  400f5e:	89 c7                	mov    %eax,%edi
  400f60:	e8 eb fc ff ff       	callq  400c50 <srandom@plt>
  400f65:	e8 c6 fd ff ff       	callq  400d30 <random@plt>
  400f6a:	01 e8                	add    %ebp,%eax
  400f6c:	0f b7 c0             	movzwl %ax,%eax
  400f6f:	48 8d 04 c5 00 01 00 	lea    0x100(,%rax,8),%rax
  400f76:	00 
  400f77:	48 89 05 da 36 20 00 	mov    %rax,0x2036da(%rip)        # 604658 <buf_offset>
  400f7e:	c6 05 7f 43 20 00 72 	movb   $0x72,0x20437f(%rip)        # 605304 <target_prefix>
  400f85:	83 3d d4 36 20 00 00 	cmpl   $0x0,0x2036d4(%rip)        # 604660 <notify>
  400f8c:	0f 84 b5 00 00 00    	je     401047 <initialize_target+0x147>
  400f92:	83 3d 27 37 20 00 00 	cmpl   $0x0,0x203727(%rip)        # 6046c0 <is_checker>
  400f99:	0f 85 a8 00 00 00    	jne    401047 <initialize_target+0x147>
  400f9f:	48 8d bc 24 00 20 00 	lea    0x2000(%rsp),%rdi
  400fa6:	00 
  400fa7:	be 00 01 00 00       	mov    $0x100,%esi
  400fac:	e8 ff fc ff ff       	callq  400cb0 <gethostname@plt>
  400fb1:	85 c0                	test   %eax,%eax
  400fb3:	75 1b                	jne    400fd0 <initialize_target+0xd0>
  400fb5:	48 8b 3d 64 33 20 00 	mov    0x203364(%rip),%rdi        # 604320 <host_table>
  400fbc:	bb 28 43 60 00       	mov    $0x604328,%ebx
  400fc1:	48 8d ac 24 00 20 00 	lea    0x2000(%rsp),%rbp
  400fc8:	00 
  400fc9:	48 85 ff             	test   %rdi,%rdi
  400fcc:	75 16                	jne    400fe4 <initialize_target+0xe4>
  400fce:	eb 56                	jmp    401026 <initialize_target+0x126>
  400fd0:	bf 60 2b 40 00       	mov    $0x402b60,%edi
  400fd5:	e8 e6 fb ff ff       	callq  400bc0 <puts@plt>
  400fda:	bf 08 00 00 00       	mov    $0x8,%edi
  400fdf:	e8 fc fb ff ff       	callq  400be0 <exit@plt>
  400fe4:	48 89 ee             	mov    %rbp,%rsi
  400fe7:	e8 04 fc ff ff       	callq  400bf0 <strcasecmp@plt>
  400fec:	85 c0                	test   %eax,%eax
  400fee:	74 0e                	je     400ffe <initialize_target+0xfe>
  400ff0:	48 8b 3b             	mov    (%rbx),%rdi
  400ff3:	48 83 c3 08          	add    $0x8,%rbx
  400ff7:	48 85 ff             	test   %rdi,%rdi
  400ffa:	75 e8                	jne    400fe4 <initialize_target+0xe4>
  400ffc:	eb 28                	jmp    401026 <initialize_target+0x126>
  400ffe:	48 89 e7             	mov    %rsp,%rdi
  401001:	e8 1a 0f 00 00       	callq  401f20 <init_driver>
  401006:	85 c0                	test   %eax,%eax
  401008:	79 3d                	jns    401047 <initialize_target+0x147>
  40100a:	48 89 e6             	mov    %rsp,%rsi
  40100d:	bf 98 2b 40 00       	mov    $0x402b98,%edi
  401012:	b8 00 00 00 00       	mov    $0x0,%eax
  401017:	e8 64 fb ff ff       	callq  400b80 <printf@plt>
  40101c:	bf 08 00 00 00       	mov    $0x8,%edi
  401021:	e8 ba fb ff ff       	callq  400be0 <exit@plt>
  401026:	48 8d b4 24 00 20 00 	lea    0x2000(%rsp),%rsi
  40102d:	00 
  40102e:	bf c0 2b 40 00       	mov    $0x402bc0,%edi
  401033:	b8 00 00 00 00       	mov    $0x0,%eax
  401038:	e8 43 fb ff ff       	callq  400b80 <printf@plt>
  40103d:	bf 08 00 00 00       	mov    $0x8,%edi
  401042:	e8 99 fb ff ff       	callq  400be0 <exit@plt>
  401047:	48 81 c4 08 21 00 00 	add    $0x2108,%rsp
  40104e:	5b                   	pop    %rbx
  40104f:	5d                   	pop    %rbp
  401050:	c3                   	retq   

0000000000401051 <main>:
  401051:	41 57                	push   %r15
  401053:	41 56                	push   %r14
  401055:	41 55                	push   %r13
  401057:	41 54                	push   %r12
  401059:	55                   	push   %rbp
  40105a:	53                   	push   %rbx
  40105b:	48 83 ec 08          	sub    $0x8,%rsp
  40105f:	41 89 fc             	mov    %edi,%r12d
  401062:	48 89 f3             	mov    %rsi,%rbx
  401065:	be ce 1c 40 00       	mov    $0x401cce,%esi
  40106a:	bf 0b 00 00 00       	mov    $0xb,%edi
  40106f:	e8 5c fc ff ff       	callq  400cd0 <signal@plt>
  401074:	be 1e 1d 40 00       	mov    $0x401d1e,%esi
  401079:	bf 07 00 00 00       	mov    $0x7,%edi
  40107e:	e8 4d fc ff ff       	callq  400cd0 <signal@plt>
  401083:	be 7e 1c 40 00       	mov    $0x401c7e,%esi
  401088:	bf 04 00 00 00       	mov    $0x4,%edi
  40108d:	e8 3e fc ff ff       	callq  400cd0 <signal@plt>
  401092:	bd 9d 2c 40 00       	mov    $0x402c9d,%ebp
  401097:	83 3d 22 36 20 00 00 	cmpl   $0x0,0x203622(%rip)        # 6046c0 <is_checker>
  40109e:	74 1e                	je     4010be <main+0x6d>
  4010a0:	be 2e 1c 40 00       	mov    $0x401c2e,%esi
  4010a5:	bf 0e 00 00 00       	mov    $0xe,%edi
  4010aa:	e8 21 fc ff ff       	callq  400cd0 <signal@plt>
  4010af:	bf 05 00 00 00       	mov    $0x5,%edi
  4010b4:	e8 37 fc ff ff       	callq  400cf0 <alarm@plt>
  4010b9:	bd a2 2c 40 00       	mov    $0x402ca2,%ebp
  4010be:	48 8b 05 bb 35 20 00 	mov    0x2035bb(%rip),%rax        # 604680 <stdin@@GLIBC_2.2.5>
  4010c5:	48 89 05 0c 36 20 00 	mov    %rax,0x20360c(%rip)        # 6046d8 <infile>
  4010cc:	41 be 00 00 00 00    	mov    $0x0,%r14d
  4010d2:	41 bf 00 00 00 00    	mov    $0x0,%r15d
  4010d8:	41 bd e8 2c 40 00    	mov    $0x402ce8,%r13d
  4010de:	e9 bd 00 00 00       	jmpq   4011a0 <main+0x14f>
  4010e3:	8d 50 9f             	lea    -0x61(%rax),%edx
  4010e6:	80 fa 10             	cmp    $0x10,%dl
  4010e9:	0f 87 97 00 00 00    	ja     401186 <main+0x135>
  4010ef:	0f b6 d2             	movzbl %dl,%edx
  4010f2:	41 ff 64 d5 00       	jmpq   *0x0(%r13,%rdx,8)
  4010f7:	48 8b 3b             	mov    (%rbx),%rdi
  4010fa:	e8 81 fd ff ff       	callq  400e80 <usage>
  4010ff:	90                   	nop
  401100:	e9 9b 00 00 00       	jmpq   4011a0 <main+0x14f>
  401105:	be fe 2f 40 00       	mov    $0x402ffe,%esi
  40110a:	48 8b 3d 8f 35 20 00 	mov    0x20358f(%rip),%rdi        # 6046a0 <optarg@@GLIBC_2.2.5>
  401111:	e8 1a fb ff ff       	callq  400c30 <fopen@plt>
  401116:	48 89 05 bb 35 20 00 	mov    %rax,0x2035bb(%rip)        # 6046d8 <infile>
  40111d:	48 85 c0             	test   %rax,%rax
  401120:	75 7e                	jne    4011a0 <main+0x14f>
  401122:	48 8b 15 77 35 20 00 	mov    0x203577(%rip),%rdx        # 6046a0 <optarg@@GLIBC_2.2.5>
  401129:	be aa 2c 40 00       	mov    $0x402caa,%esi
  40112e:	48 8b 3d 73 35 20 00 	mov    0x203573(%rip),%rdi        # 6046a8 <stderr@@GLIBC_2.2.5>
  401135:	e8 06 fc ff ff       	callq  400d40 <fprintf@plt>
  40113a:	b8 01 00 00 00       	mov    $0x1,%eax
  40113f:	e9 d3 00 00 00       	jmpq   401217 <main+0x1c6>
  401144:	ba 10 00 00 00       	mov    $0x10,%edx
  401149:	be 00 00 00 00       	mov    $0x0,%esi
  40114e:	48 8b 3d 4b 35 20 00 	mov    0x20354b(%rip),%rdi        # 6046a0 <optarg@@GLIBC_2.2.5>
  401155:	e8 06 fc ff ff       	callq  400d60 <strtoul@plt>
  40115a:	41 89 c7             	mov    %eax,%r15d
  40115d:	eb 41                	jmp    4011a0 <main+0x14f>
  40115f:	ba 0a 00 00 00       	mov    $0xa,%edx
  401164:	be 00 00 00 00       	mov    $0x0,%esi
  401169:	48 8b 3d 30 35 20 00 	mov    0x203530(%rip),%rdi        # 6046a0 <optarg@@GLIBC_2.2.5>
  401170:	e8 1b fb ff ff       	callq  400c90 <strtol@plt>
  401175:	41 89 c6             	mov    %eax,%r14d
  401178:	eb 26                	jmp    4011a0 <main+0x14f>
  40117a:	c7 05 dc 34 20 00 00 	movl   $0x0,0x2034dc(%rip)        # 604660 <notify>
  401181:	00 00 00 
  401184:	eb 1a                	jmp    4011a0 <main+0x14f>
  401186:	0f be f0             	movsbl %al,%esi
  401189:	bf c7 2c 40 00       	mov    $0x402cc7,%edi
  40118e:	b8 00 00 00 00       	mov    $0x0,%eax
  401193:	e8 e8 f9 ff ff       	callq  400b80 <printf@plt>
  401198:	48 8b 3b             	mov    (%rbx),%rdi
  40119b:	e8 e0 fc ff ff       	callq  400e80 <usage>
  4011a0:	48 89 ea             	mov    %rbp,%rdx
  4011a3:	48 89 de             	mov    %rbx,%rsi
  4011a6:	44 89 e7             	mov    %r12d,%edi
  4011a9:	e8 52 fa ff ff       	callq  400c00 <getopt@plt>
  4011ae:	3c ff                	cmp    $0xff,%al
  4011b0:	0f 85 2d ff ff ff    	jne    4010e3 <main+0x92>
  4011b6:	be 01 00 00 00       	mov    $0x1,%esi
  4011bb:	44 89 f7             	mov    %r14d,%edi
  4011be:	e8 3d fd ff ff       	callq  400f00 <initialize_target>
  4011c3:	83 3d f6 34 20 00 00 	cmpl   $0x0,0x2034f6(%rip)        # 6046c0 <is_checker>
  4011ca:	74 25                	je     4011f1 <main+0x1a0>
  4011cc:	44 3b 3d f5 34 20 00 	cmp    0x2034f5(%rip),%r15d        # 6046c8 <authkey>
  4011d3:	74 1c                	je     4011f1 <main+0x1a0>
  4011d5:	44 89 fe             	mov    %r15d,%esi
  4011d8:	bf 00 2c 40 00       	mov    $0x402c00,%edi
  4011dd:	b8 00 00 00 00       	mov    $0x0,%eax
  4011e2:	e8 99 f9 ff ff       	callq  400b80 <printf@plt>
  4011e7:	b8 00 00 00 00       	mov    $0x0,%eax
  4011ec:	e8 3f 07 00 00       	callq  401930 <check_fail>
  4011f1:	8b 35 cd 34 20 00    	mov    0x2034cd(%rip),%esi        # 6046c4 <cookie>
  4011f7:	bf da 2c 40 00       	mov    $0x402cda,%edi
  4011fc:	b8 00 00 00 00       	mov    $0x0,%eax
  401201:	e8 7a f9 ff ff       	callq  400b80 <printf@plt>
  401206:	48 8b 3d 4b 34 20 00 	mov    0x20344b(%rip),%rdi        # 604658 <buf_offset>
  40120d:	e8 4d 07 00 00       	callq  40195f <launch>
  401212:	b8 00 00 00 00       	mov    $0x0,%eax
  401217:	48 83 c4 08          	add    $0x8,%rsp
  40121b:	5b                   	pop    %rbx
  40121c:	5d                   	pop    %rbp
  40121d:	41 5c                	pop    %r12
  40121f:	41 5d                	pop    %r13
  401221:	41 5e                	pop    %r14
  401223:	41 5f                	pop    %r15
  401225:	c3                   	retq   
  401226:	90                   	nop
  401227:	90                   	nop

0000000000401228 <scramble>:
  401228:	b8 00 00 00 00       	mov    $0x0,%eax
  40122d:	89 c2                	mov    %eax,%edx
  40122f:	89 7c 94 c8          	mov    %edi,-0x38(%rsp,%rdx,4)
  401233:	83 c0 01             	add    $0x1,%eax
  401236:	81 c7 33 52 00 00    	add    $0x5233,%edi
  40123c:	83 f8 0a             	cmp    $0xa,%eax
  40123f:	75 ec                	jne    40122d <scramble+0x5>
  401241:	8b 44 24 e0          	mov    -0x20(%rsp),%eax
  401245:	69 c0 42 99 00 00    	imul   $0x9942,%eax,%eax
  40124b:	89 44 24 e0          	mov    %eax,-0x20(%rsp)
  40124f:	8b 44 24 e4          	mov    -0x1c(%rsp),%eax
  401253:	69 c0 f3 90 00 00    	imul   $0x90f3,%eax,%eax
  401259:	89 44 24 e4          	mov    %eax,-0x1c(%rsp)
  40125d:	8b 44 24 d4          	mov    -0x2c(%rsp),%eax
  401261:	69 c0 99 1a 00 00    	imul   $0x1a99,%eax,%eax
  401267:	89 44 24 d4          	mov    %eax,-0x2c(%rsp)
  40126b:	8b 44 24 dc          	mov    -0x24(%rsp),%eax
  40126f:	69 c0 24 f9 00 00    	imul   $0xf924,%eax,%eax
  401275:	89 44 24 dc          	mov    %eax,-0x24(%rsp)
  401279:	8b 44 24 d8          	mov    -0x28(%rsp),%eax
  40127d:	69 c0 40 33 00 00    	imul   $0x3340,%eax,%eax
  401283:	89 44 24 d8          	mov    %eax,-0x28(%rsp)
  401287:	8b 44 24 d8          	mov    -0x28(%rsp),%eax
  40128b:	69 c0 ba 8a 00 00    	imul   $0x8aba,%eax,%eax
  401291:	89 44 24 d8          	mov    %eax,-0x28(%rsp)
  401295:	8b 44 24 d8          	mov    -0x28(%rsp),%eax
  401299:	69 c0 6b ba 00 00    	imul   $0xba6b,%eax,%eax
  40129f:	89 44 24 d8          	mov    %eax,-0x28(%rsp)
  4012a3:	8b 44 24 cc          	mov    -0x34(%rsp),%eax
  4012a7:	69 c0 76 a1 00 00    	imul   $0xa176,%eax,%eax
  4012ad:	89 44 24 cc          	mov    %eax,-0x34(%rsp)
  4012b1:	8b 44 24 ec          	mov    -0x14(%rsp),%eax
  4012b5:	69 c0 e9 53 00 00    	imul   $0x53e9,%eax,%eax
  4012bb:	89 44 24 ec          	mov    %eax,-0x14(%rsp)
  4012bf:	8b 44 24 d8          	mov    -0x28(%rsp),%eax
  4012c3:	69 c0 65 12 00 00    	imul   $0x1265,%eax,%eax
  4012c9:	89 44 24 d8          	mov    %eax,-0x28(%rsp)
  4012cd:	8b 44 24 ec          	mov    -0x14(%rsp),%eax
  4012d1:	69 c0 60 36 00 00    	imul   $0x3660,%eax,%eax
  4012d7:	89 44 24 ec          	mov    %eax,-0x14(%rsp)
  4012db:	8b 44 24 e8          	mov    -0x18(%rsp),%eax
  4012df:	69 c0 45 81 00 00    	imul   $0x8145,%eax,%eax
  4012e5:	89 44 24 e8          	mov    %eax,-0x18(%rsp)
  4012e9:	8b 44 24 d0          	mov    -0x30(%rsp),%eax
  4012ed:	69 c0 62 ba 00 00    	imul   $0xba62,%eax,%eax
  4012f3:	89 44 24 d0          	mov    %eax,-0x30(%rsp)
  4012f7:	8b 44 24 c8          	mov    -0x38(%rsp),%eax
  4012fb:	69 c0 60 d4 00 00    	imul   $0xd460,%eax,%eax
  401301:	89 44 24 c8          	mov    %eax,-0x38(%rsp)
  401305:	8b 44 24 d4          	mov    -0x2c(%rsp),%eax
  401309:	69 c0 0e 80 00 00    	imul   $0x800e,%eax,%eax
  40130f:	89 44 24 d4          	mov    %eax,-0x2c(%rsp)
  401313:	8b 44 24 e0          	mov    -0x20(%rsp),%eax
  401317:	69 c0 d8 06 00 00    	imul   $0x6d8,%eax,%eax
  40131d:	89 44 24 e0          	mov    %eax,-0x20(%rsp)
  401321:	8b 44 24 ec          	mov    -0x14(%rsp),%eax
  401325:	69 c0 5b a6 00 00    	imul   $0xa65b,%eax,%eax
  40132b:	89 44 24 ec          	mov    %eax,-0x14(%rsp)
  40132f:	8b 44 24 d8          	mov    -0x28(%rsp),%eax
  401333:	69 c0 6a dd 00 00    	imul   $0xdd6a,%eax,%eax
  401339:	89 44 24 d8          	mov    %eax,-0x28(%rsp)
  40133d:	8b 44 24 d0          	mov    -0x30(%rsp),%eax
  401341:	69 c0 e7 6d 00 00    	imul   $0x6de7,%eax,%eax
  401347:	89 44 24 d0          	mov    %eax,-0x30(%rsp)
  40134b:	8b 44 24 ec          	mov    -0x14(%rsp),%eax
  40134f:	69 c0 6d da 00 00    	imul   $0xda6d,%eax,%eax
  401355:	89 44 24 ec          	mov    %eax,-0x14(%rsp)
  401359:	8b 44 24 dc          	mov    -0x24(%rsp),%eax
  40135d:	69 c0 00 39 00 00    	imul   $0x3900,%eax,%eax
  401363:	89 44 24 dc          	mov    %eax,-0x24(%rsp)
  401367:	8b 44 24 cc          	mov    -0x34(%rsp),%eax
  40136b:	69 c0 34 0c 00 00    	imul   $0xc34,%eax,%eax
  401371:	89 44 24 cc          	mov    %eax,-0x34(%rsp)
  401375:	8b 44 24 e8          	mov    -0x18(%rsp),%eax
  401379:	69 c0 d6 b7 00 00    	imul   $0xb7d6,%eax,%eax
  40137f:	89 44 24 e8          	mov    %eax,-0x18(%rsp)
  401383:	8b 44 24 d4          	mov    -0x2c(%rsp),%eax
  401387:	69 c0 d8 cd 00 00    	imul   $0xcdd8,%eax,%eax
  40138d:	89 44 24 d4          	mov    %eax,-0x2c(%rsp)
  401391:	8b 44 24 ec          	mov    -0x14(%rsp),%eax
  401395:	69 c0 bf ab 00 00    	imul   $0xabbf,%eax,%eax
  40139b:	89 44 24 ec          	mov    %eax,-0x14(%rsp)
  40139f:	8b 44 24 e4          	mov    -0x1c(%rsp),%eax
  4013a3:	69 c0 5b 77 00 00    	imul   $0x775b,%eax,%eax
  4013a9:	89 44 24 e4          	mov    %eax,-0x1c(%rsp)
  4013ad:	8b 44 24 d0          	mov    -0x30(%rsp),%eax
  4013b1:	69 c0 75 67 00 00    	imul   $0x6775,%eax,%eax
  4013b7:	89 44 24 d0          	mov    %eax,-0x30(%rsp)
  4013bb:	8b 44 24 dc          	mov    -0x24(%rsp),%eax
  4013bf:	69 c0 de ed 00 00    	imul   $0xedde,%eax,%eax
  4013c5:	89 44 24 dc          	mov    %eax,-0x24(%rsp)
  4013c9:	8b 44 24 e0          	mov    -0x20(%rsp),%eax
  4013cd:	69 c0 9a d8 00 00    	imul   $0xd89a,%eax,%eax
  4013d3:	89 44 24 e0          	mov    %eax,-0x20(%rsp)
  4013d7:	8b 44 24 e4          	mov    -0x1c(%rsp),%eax
  4013db:	69 c0 7c d6 00 00    	imul   $0xd67c,%eax,%eax
  4013e1:	89 44 24 e4          	mov    %eax,-0x1c(%rsp)
  4013e5:	8b 44 24 d0          	mov    -0x30(%rsp),%eax
  4013e9:	69 c0 7b 14 00 00    	imul   $0x147b,%eax,%eax
  4013ef:	89 44 24 d0          	mov    %eax,-0x30(%rsp)
  4013f3:	8b 44 24 cc          	mov    -0x34(%rsp),%eax
  4013f7:	69 c0 f9 71 00 00    	imul   $0x71f9,%eax,%eax
  4013fd:	89 44 24 cc          	mov    %eax,-0x34(%rsp)
  401401:	8b 44 24 ec          	mov    -0x14(%rsp),%eax
  401405:	69 c0 1f 75 00 00    	imul   $0x751f,%eax,%eax
  40140b:	89 44 24 ec          	mov    %eax,-0x14(%rsp)
  40140f:	8b 44 24 e0          	mov    -0x20(%rsp),%eax
  401413:	69 c0 cb 7b 00 00    	imul   $0x7bcb,%eax,%eax
  401419:	89 44 24 e0          	mov    %eax,-0x20(%rsp)
  40141d:	8b 44 24 ec          	mov    -0x14(%rsp),%eax
  401421:	69 c0 f1 25 00 00    	imul   $0x25f1,%eax,%eax
  401427:	89 44 24 ec          	mov    %eax,-0x14(%rsp)
  40142b:	8b 44 24 c8          	mov    -0x38(%rsp),%eax
  40142f:	69 c0 2e 84 00 00    	imul   $0x842e,%eax,%eax
  401435:	89 44 24 c8          	mov    %eax,-0x38(%rsp)
  401439:	8b 44 24 d0          	mov    -0x30(%rsp),%eax
  40143d:	69 c0 60 bb 00 00    	imul   $0xbb60,%eax,%eax
  401443:	89 44 24 d0          	mov    %eax,-0x30(%rsp)
  401447:	8b 44 24 e8          	mov    -0x18(%rsp),%eax
  40144b:	69 c0 5d 52 00 00    	imul   $0x525d,%eax,%eax
  401451:	89 44 24 e8          	mov    %eax,-0x18(%rsp)
  401455:	8b 44 24 e0          	mov    -0x20(%rsp),%eax
  401459:	69 c0 0c 3e 00 00    	imul   $0x3e0c,%eax,%eax
  40145f:	89 44 24 e0          	mov    %eax,-0x20(%rsp)
  401463:	8b 44 24 ec          	mov    -0x14(%rsp),%eax
  401467:	69 c0 f5 7e 00 00    	imul   $0x7ef5,%eax,%eax
  40146d:	89 44 24 ec          	mov    %eax,-0x14(%rsp)
  401471:	8b 44 24 d0          	mov    -0x30(%rsp),%eax
  401475:	6b c0 73             	imul   $0x73,%eax,%eax
  401478:	89 44 24 d0          	mov    %eax,-0x30(%rsp)
  40147c:	8b 44 24 c8          	mov    -0x38(%rsp),%eax
  401480:	69 c0 eb cb 00 00    	imul   $0xcbeb,%eax,%eax
  401486:	89 44 24 c8          	mov    %eax,-0x38(%rsp)
  40148a:	8b 44 24 dc          	mov    -0x24(%rsp),%eax
  40148e:	69 c0 f1 ee 00 00    	imul   $0xeef1,%eax,%eax
  401494:	89 44 24 dc          	mov    %eax,-0x24(%rsp)
  401498:	8b 44 24 cc          	mov    -0x34(%rsp),%eax
  40149c:	69 c0 c0 89 00 00    	imul   $0x89c0,%eax,%eax
  4014a2:	89 44 24 cc          	mov    %eax,-0x34(%rsp)
  4014a6:	8b 44 24 d8          	mov    -0x28(%rsp),%eax
  4014aa:	69 c0 07 7c 00 00    	imul   $0x7c07,%eax,%eax
  4014b0:	89 44 24 d8          	mov    %eax,-0x28(%rsp)
  4014b4:	8b 44 24 d8          	mov    -0x28(%rsp),%eax
  4014b8:	69 c0 34 20 00 00    	imul   $0x2034,%eax,%eax
  4014be:	89 44 24 d8          	mov    %eax,-0x28(%rsp)
  4014c2:	8b 44 24 e0          	mov    -0x20(%rsp),%eax
  4014c6:	69 c0 90 3d 00 00    	imul   $0x3d90,%eax,%eax
  4014cc:	89 44 24 e0          	mov    %eax,-0x20(%rsp)
  4014d0:	8b 44 24 ec          	mov    -0x14(%rsp),%eax
  4014d4:	69 c0 59 4b 00 00    	imul   $0x4b59,%eax,%eax
  4014da:	89 44 24 ec          	mov    %eax,-0x14(%rsp)
  4014de:	8b 44 24 dc          	mov    -0x24(%rsp),%eax
  4014e2:	69 c0 91 e1 00 00    	imul   $0xe191,%eax,%eax
  4014e8:	89 44 24 dc          	mov    %eax,-0x24(%rsp)
  4014ec:	8b 44 24 ec          	mov    -0x14(%rsp),%eax
  4014f0:	69 c0 b6 95 00 00    	imul   $0x95b6,%eax,%eax
  4014f6:	89 44 24 ec          	mov    %eax,-0x14(%rsp)
  4014fa:	8b 44 24 d8          	mov    -0x28(%rsp),%eax
  4014fe:	69 c0 5e 1d 00 00    	imul   $0x1d5e,%eax,%eax
  401504:	89 44 24 d8          	mov    %eax,-0x28(%rsp)
  401508:	8b 44 24 d0          	mov    -0x30(%rsp),%eax
  40150c:	69 c0 75 66 00 00    	imul   $0x6675,%eax,%eax
  401512:	89 44 24 d0          	mov    %eax,-0x30(%rsp)
  401516:	8b 44 24 d8          	mov    -0x28(%rsp),%eax
  40151a:	69 c0 46 aa 00 00    	imul   $0xaa46,%eax,%eax
  401520:	89 44 24 d8          	mov    %eax,-0x28(%rsp)
  401524:	8b 44 24 e8          	mov    -0x18(%rsp),%eax
  401528:	69 c0 f5 4b 00 00    	imul   $0x4bf5,%eax,%eax
  40152e:	89 44 24 e8          	mov    %eax,-0x18(%rsp)
  401532:	8b 44 24 e0          	mov    -0x20(%rsp),%eax
  401536:	69 c0 08 d9 00 00    	imul   $0xd908,%eax,%eax
  40153c:	89 44 24 e0          	mov    %eax,-0x20(%rsp)
  401540:	8b 44 24 d0          	mov    -0x30(%rsp),%eax
  401544:	69 c0 1d d2 00 00    	imul   $0xd21d,%eax,%eax
  40154a:	89 44 24 d0          	mov    %eax,-0x30(%rsp)
  40154e:	8b 44 24 e0          	mov    -0x20(%rsp),%eax
  401552:	69 c0 3b c1 00 00    	imul   $0xc13b,%eax,%eax
  401558:	89 44 24 e0          	mov    %eax,-0x20(%rsp)
  40155c:	8b 44 24 e0          	mov    -0x20(%rsp),%eax
  401560:	69 c0 64 41 00 00    	imul   $0x4164,%eax,%eax
  401566:	89 44 24 e0          	mov    %eax,-0x20(%rsp)
  40156a:	8b 44 24 c8          	mov    -0x38(%rsp),%eax
  40156e:	69 c0 d1 57 00 00    	imul   $0x57d1,%eax,%eax
  401574:	89 44 24 c8          	mov    %eax,-0x38(%rsp)
  401578:	8b 44 24 d8          	mov    -0x28(%rsp),%eax
  40157c:	69 c0 b7 77 00 00    	imul   $0x77b7,%eax,%eax
  401582:	89 44 24 d8          	mov    %eax,-0x28(%rsp)
  401586:	8b 44 24 c8          	mov    -0x38(%rsp),%eax
  40158a:	69 c0 60 2b 00 00    	imul   $0x2b60,%eax,%eax
  401590:	89 44 24 c8          	mov    %eax,-0x38(%rsp)
  401594:	8b 44 24 d8          	mov    -0x28(%rsp),%eax
  401598:	69 c0 5b 64 00 00    	imul   $0x645b,%eax,%eax
  40159e:	89 44 24 d8          	mov    %eax,-0x28(%rsp)
  4015a2:	8b 44 24 e8          	mov    -0x18(%rsp),%eax
  4015a6:	69 c0 1a 2a 00 00    	imul   $0x2a1a,%eax,%eax
  4015ac:	89 44 24 e8          	mov    %eax,-0x18(%rsp)
  4015b0:	8b 44 24 d4          	mov    -0x2c(%rsp),%eax
  4015b4:	69 c0 a0 1b 00 00    	imul   $0x1ba0,%eax,%eax
  4015ba:	89 44 24 d4          	mov    %eax,-0x2c(%rsp)
  4015be:	8b 44 24 d0          	mov    -0x30(%rsp),%eax
  4015c2:	69 c0 d9 76 00 00    	imul   $0x76d9,%eax,%eax
  4015c8:	89 44 24 d0          	mov    %eax,-0x30(%rsp)
  4015cc:	8b 44 24 d4          	mov    -0x2c(%rsp),%eax
  4015d0:	69 c0 2e 13 00 00    	imul   $0x132e,%eax,%eax
  4015d6:	89 44 24 d4          	mov    %eax,-0x2c(%rsp)
  4015da:	8b 44 24 dc          	mov    -0x24(%rsp),%eax
  4015de:	69 c0 3a cb 00 00    	imul   $0xcb3a,%eax,%eax
  4015e4:	89 44 24 dc          	mov    %eax,-0x24(%rsp)
  4015e8:	8b 44 24 d8          	mov    -0x28(%rsp),%eax
  4015ec:	69 c0 f6 6c 00 00    	imul   $0x6cf6,%eax,%eax
  4015f2:	89 44 24 d8          	mov    %eax,-0x28(%rsp)
  4015f6:	8b 44 24 cc          	mov    -0x34(%rsp),%eax
  4015fa:	69 c0 76 32 00 00    	imul   $0x3276,%eax,%eax
  401600:	89 44 24 cc          	mov    %eax,-0x34(%rsp)
  401604:	8b 44 24 d8          	mov    -0x28(%rsp),%eax
  401608:	69 c0 d2 5d 00 00    	imul   $0x5dd2,%eax,%eax
  40160e:	89 44 24 d8          	mov    %eax,-0x28(%rsp)
  401612:	8b 44 24 ec          	mov    -0x14(%rsp),%eax
  401616:	69 c0 d5 83 00 00    	imul   $0x83d5,%eax,%eax
  40161c:	89 44 24 ec          	mov    %eax,-0x14(%rsp)
  401620:	8b 44 24 c8          	mov    -0x38(%rsp),%eax
  401624:	69 c0 fa e4 00 00    	imul   $0xe4fa,%eax,%eax
  40162a:	89 44 24 c8          	mov    %eax,-0x38(%rsp)
  40162e:	ba 00 00 00 00       	mov    $0x0,%edx
  401633:	b8 00 00 00 00       	mov    $0x0,%eax
  401638:	89 d1                	mov    %edx,%ecx
  40163a:	8b 4c 8c c8          	mov    -0x38(%rsp,%rcx,4),%ecx
  40163e:	01 c8                	add    %ecx,%eax
  401640:	83 c2 01             	add    $0x1,%edx
  401643:	83 fa 0a             	cmp    $0xa,%edx
  401646:	75 f0                	jne    401638 <scramble+0x410>
  401648:	f3 c3                	repz retq 
  40164a:	90                   	nop
  40164b:	90                   	nop

000000000040164c <getbuf>:
  40164c:	48 83 ec 18          	sub    $0x18,%rsp
  401650:	48 89 e7             	mov    %rsp,%rdi
  401653:	e8 13 08 00 00       	callq  401e6b <Gets>
  401658:	b8 01 00 00 00       	mov    $0x1,%eax
  40165d:	48 83 c4 18          	add    $0x18,%rsp
  401661:	c3                   	retq   
  401662:	90                   	nop
  401663:	90                   	nop

0000000000401664 <test>:
  401664:	48 83 ec 08          	sub    $0x8,%rsp
  401668:	b8 00 00 00 00       	mov    $0x0,%eax
  40166d:	e8 da ff ff ff       	callq  40164c <getbuf>
  401672:	89 c6                	mov    %eax,%esi
  401674:	bf 20 2e 40 00       	mov    $0x402e20,%edi
  401679:	b8 00 00 00 00       	mov    $0x0,%eax
  40167e:	e8 fd f4 ff ff       	callq  400b80 <printf@plt>
  401683:	48 83 c4 08          	add    $0x8,%rsp
  401687:	c3                   	retq   

0000000000401688 <touch2>:
  401688:	48 83 ec 08          	sub    $0x8,%rsp
  40168c:	89 fe                	mov    %edi,%esi
  40168e:	c7 05 34 30 20 00 02 	movl   $0x2,0x203034(%rip)        # 6046cc <vlevel>
  401695:	00 00 00 
  401698:	3b 3d 26 30 20 00    	cmp    0x203026(%rip),%edi        # 6046c4 <cookie>
  40169e:	75 1b                	jne    4016bb <touch2+0x33>
  4016a0:	bf 48 2e 40 00       	mov    $0x402e48,%edi
  4016a5:	b8 00 00 00 00       	mov    $0x0,%eax
  4016aa:	e8 d1 f4 ff ff       	callq  400b80 <printf@plt>
  4016af:	bf 02 00 00 00       	mov    $0x2,%edi
  4016b4:	e8 df 06 00 00       	callq  401d98 <validate>
  4016b9:	eb 19                	jmp    4016d4 <touch2+0x4c>
  4016bb:	bf 70 2e 40 00       	mov    $0x402e70,%edi
  4016c0:	b8 00 00 00 00       	mov    $0x0,%eax
  4016c5:	e8 b6 f4 ff ff       	callq  400b80 <printf@plt>
  4016ca:	bf 02 00 00 00       	mov    $0x2,%edi
  4016cf:	e8 9a 06 00 00       	callq  401d6e <fail>
  4016d4:	bf 00 00 00 00       	mov    $0x0,%edi
  4016d9:	e8 02 f5 ff ff       	callq  400be0 <exit@plt>

00000000004016de <hexmatch>:
  4016de:	48 89 5c 24 e8       	mov    %rbx,-0x18(%rsp)
  4016e3:	48 89 6c 24 f0       	mov    %rbp,-0x10(%rsp)
  4016e8:	4c 89 64 24 f8       	mov    %r12,-0x8(%rsp)
  4016ed:	48 81 ec 88 00 00 00 	sub    $0x88,%rsp
  4016f4:	89 fd                	mov    %edi,%ebp
  4016f6:	49 89 f4             	mov    %rsi,%r12
  4016f9:	e8 32 f6 ff ff       	callq  400d30 <random@plt>
  4016fe:	48 89 c1             	mov    %rax,%rcx
  401701:	48 ba 0b d7 a3 70 3d 	mov    $0xa3d70a3d70a3d70b,%rdx
  401708:	0a d7 a3 
  40170b:	48 f7 ea             	imul   %rdx
  40170e:	48 01 ca             	add    %rcx,%rdx
  401711:	48 c1 fa 06          	sar    $0x6,%rdx
  401715:	48 89 c8             	mov    %rcx,%rax
  401718:	48 c1 f8 3f          	sar    $0x3f,%rax
  40171c:	48 29 c2             	sub    %rax,%rdx
  40171f:	48 8d 04 92          	lea    (%rdx,%rdx,4),%rax
  401723:	48 8d 04 80          	lea    (%rax,%rax,4),%rax
  401727:	48 c1 e0 02          	shl    $0x2,%rax
  40172b:	48 29 c1             	sub    %rax,%rcx
  40172e:	48 8d 1c 0c          	lea    (%rsp,%rcx,1),%rbx
  401732:	89 ea                	mov    %ebp,%edx
  401734:	be e2 2e 40 00       	mov    $0x402ee2,%esi
  401739:	48 89 df             	mov    %rbx,%rdi
  40173c:	b8 00 00 00 00       	mov    $0x0,%eax
  401741:	e8 3a f5 ff ff       	callq  400c80 <sprintf@plt>
  401746:	ba 09 00 00 00       	mov    $0x9,%edx
  40174b:	48 89 de             	mov    %rbx,%rsi
  40174e:	4c 89 e7             	mov    %r12,%rdi
  401751:	e8 ca f4 ff ff       	callq  400c20 <strncmp@plt>
  401756:	85 c0                	test   %eax,%eax
  401758:	0f 94 c0             	sete   %al
  40175b:	0f b6 c0             	movzbl %al,%eax
  40175e:	48 8b 5c 24 70       	mov    0x70(%rsp),%rbx
  401763:	48 8b 6c 24 78       	mov    0x78(%rsp),%rbp
  401768:	4c 8b a4 24 80 00 00 	mov    0x80(%rsp),%r12
  40176f:	00 
  401770:	48 81 c4 88 00 00 00 	add    $0x88,%rsp
  401777:	c3                   	retq   

0000000000401778 <touch3>:
  401778:	53                   	push   %rbx
  401779:	48 89 fb             	mov    %rdi,%rbx
  40177c:	c7 05 46 2f 20 00 03 	movl   $0x3,0x202f46(%rip)        # 6046cc <vlevel>
  401783:	00 00 00 
  401786:	48 89 fe             	mov    %rdi,%rsi
  401789:	8b 3d 35 2f 20 00    	mov    0x202f35(%rip),%edi        # 6046c4 <cookie>
  40178f:	e8 4a ff ff ff       	callq  4016de <hexmatch>
  401794:	85 c0                	test   %eax,%eax
  401796:	74 1e                	je     4017b6 <touch3+0x3e>
  401798:	48 89 de             	mov    %rbx,%rsi
  40179b:	bf 98 2e 40 00       	mov    $0x402e98,%edi
  4017a0:	b8 00 00 00 00       	mov    $0x0,%eax
  4017a5:	e8 d6 f3 ff ff       	callq  400b80 <printf@plt>
  4017aa:	bf 03 00 00 00       	mov    $0x3,%edi
  4017af:	e8 e4 05 00 00       	callq  401d98 <validate>
  4017b4:	eb 1c                	jmp    4017d2 <touch3+0x5a>
  4017b6:	48 89 de             	mov    %rbx,%rsi
  4017b9:	bf c0 2e 40 00       	mov    $0x402ec0,%edi
  4017be:	b8 00 00 00 00       	mov    $0x0,%eax
  4017c3:	e8 b8 f3 ff ff       	callq  400b80 <printf@plt>
  4017c8:	bf 03 00 00 00       	mov    $0x3,%edi
  4017cd:	e8 9c 05 00 00       	callq  401d6e <fail>
  4017d2:	bf 00 00 00 00       	mov    $0x0,%edi
  4017d7:	e8 04 f4 ff ff       	callq  400be0 <exit@plt>

00000000004017dc <touch1>:
  4017dc:	48 83 ec 08          	sub    $0x8,%rsp
  4017e0:	c7 05 e2 2e 20 00 01 	movl   $0x1,0x202ee2(%rip)        # 6046cc <vlevel>
  4017e7:	00 00 00 
  4017ea:	bf e7 2e 40 00       	mov    $0x402ee7,%edi
  4017ef:	e8 cc f3 ff ff       	callq  400bc0 <puts@plt>
  4017f4:	bf 01 00 00 00       	mov    $0x1,%edi
  4017f9:	e8 9a 05 00 00       	callq  401d98 <validate>
  4017fe:	bf 00 00 00 00       	mov    $0x0,%edi
  401803:	e8 d8 f3 ff ff       	callq  400be0 <exit@plt>

0000000000401808 <start_farm>:
  401808:	b8 01 00 00 00       	mov    $0x1,%eax
  40180d:	c3                   	retq   

000000000040180e <getval_168>:
  40180e:	b8 48 89 c7 94       	mov    $0x94c78948,%eax
  401813:	c3                   	retq   

0000000000401814 <getval_448>:
  401814:	b8 7e 58 89 c7       	mov    $0xc789587e,%eax
  401819:	c3                   	retq   

000000000040181a <getval_387>:
  40181a:	b8 48 89 c7 c3       	mov    $0xc3c78948,%eax
  40181f:	c3                   	retq   

0000000000401820 <getval_247>:
  401820:	b8 18 90 90 90       	mov    $0x90909018,%eax
  401825:	c3                   	retq   

0000000000401826 <addval_452>:
  401826:	8d 87 48 89 c7 c3    	lea    -0x3c3876b8(%rdi),%eax
  40182c:	c3                   	retq   

000000000040182d <setval_382>:
  40182d:	c7 07 7c 51 58 c3    	movl   $0xc358517c,(%rdi)
  401833:	c3                   	retq   

0000000000401834 <setval_489>:
  401834:	c7 07 11 58 c1 27    	movl   $0x27c15811,(%rdi)
  40183a:	c3                   	retq   

000000000040183b <getval_137>:
  40183b:	b8 58 90 c3 f0       	mov    $0xf0c39058,%eax
  401840:	c3                   	retq   

0000000000401841 <mid_farm>:
  401841:	b8 01 00 00 00       	mov    $0x1,%eax
  401846:	c3                   	retq   

0000000000401847 <add_xy>:
  401847:	48 8d 04 3e          	lea    (%rsi,%rdi,1),%rax
  40184b:	c3                   	retq   

000000000040184c <addval_468>:
  40184c:	8d 87 89 c1 08 d2    	lea    -0x2df73e77(%rdi),%eax
  401852:	c3                   	retq   

0000000000401853 <getval_214>:
  401853:	b8 89 ca 92 90       	mov    $0x9092ca89,%eax
  401858:	c3                   	retq   

0000000000401859 <addval_125>:
  401859:	8d 87 09 d6 38 c9    	lea    -0x36c729f7(%rdi),%eax
  40185f:	c3                   	retq   

0000000000401860 <setval_163>:
  401860:	c7 07 99 c1 38 c0    	movl   $0xc038c199,(%rdi)
  401866:	c3                   	retq   

0000000000401867 <setval_261>:
  401867:	c7 07 89 ca 38 db    	movl   $0xdb38ca89,(%rdi)
  40186d:	c3                   	retq   

000000000040186e <setval_243>:
  40186e:	c7 07 48 89 e0 c3    	movl   $0xc3e08948,(%rdi)
  401874:	c3                   	retq   

0000000000401875 <setval_140>:
  401875:	c7 07 ea 68 89 e0    	movl   $0xe08968ea,(%rdi)
  40187b:	c3                   	retq   

000000000040187c <addval_191>:
  40187c:	8d 87 48 89 e0 c3    	lea    -0x3c1f76b8(%rdi),%eax
  401882:	c3                   	retq   

0000000000401883 <addval_257>:
  401883:	8d 87 89 d6 18 d2    	lea    -0x2de72977(%rdi),%eax
  401889:	c3                   	retq   

000000000040188a <addval_492>:
  40188a:	8d 87 88 d6 84 d2    	lea    -0x2d7b2978(%rdi),%eax
  401890:	c3                   	retq   

0000000000401891 <setval_156>:
  401891:	c7 07 89 d6 08 c9    	movl   $0xc908d689,(%rdi)
  401897:	c3                   	retq   

0000000000401898 <getval_399>:
  401898:	b8 48 09 e0 90       	mov    $0x90e00948,%eax
  40189d:	c3                   	retq   

000000000040189e <setval_412>:
  40189e:	c7 07 48 89 e0 c7    	movl   $0xc7e08948,(%rdi)
  4018a4:	c3                   	retq   

00000000004018a5 <addval_290>:
  4018a5:	8d 87 89 ca 94 db    	lea    -0x246b3577(%rdi),%eax
  4018ab:	c3                   	retq   

00000000004018ac <getval_270>:
  4018ac:	b8 58 cc 8b c1       	mov    $0xc18bcc58,%eax
  4018b1:	c3                   	retq   

00000000004018b2 <getval_139>:
  4018b2:	b8 c9 c1 84 c9       	mov    $0xc984c1c9,%eax
  4018b7:	c3                   	retq   

00000000004018b8 <getval_164>:
  4018b8:	b8 48 89 e0 c1       	mov    $0xc1e08948,%eax
  4018bd:	c3                   	retq   

00000000004018be <setval_459>:
  4018be:	c7 07 8b d6 90 c3    	movl   $0xc390d68b,(%rdi)
  4018c4:	c3                   	retq   

00000000004018c5 <addval_430>:
  4018c5:	8d 87 89 d6 48 c0    	lea    -0x3fb72977(%rdi),%eax
  4018cb:	c3                   	retq   

00000000004018cc <addval_334>:
  4018cc:	8d 87 c9 c1 90 c3    	lea    -0x3c6f3e37(%rdi),%eax
  4018d2:	c3                   	retq   

00000000004018d3 <setval_221>:
  4018d3:	c7 07 89 ca c4 d2    	movl   $0xd2c4ca89,(%rdi)
  4018d9:	c3                   	retq   

00000000004018da <getval_252>:
  4018da:	b8 89 ca 20 d2       	mov    $0xd220ca89,%eax
  4018df:	c3                   	retq   

00000000004018e0 <getval_474>:
  4018e0:	b8 89 d6 84 c0       	mov    $0xc084d689,%eax
  4018e5:	c3                   	retq   

00000000004018e6 <setval_238>:
  4018e6:	c7 07 8b ca 38 d2    	movl   $0xd238ca8b,(%rdi)
  4018ec:	c3                   	retq   

00000000004018ed <getval_241>:
  4018ed:	b8 89 d6 94 c0       	mov    $0xc094d689,%eax
  4018f2:	c3                   	retq   

00000000004018f3 <addval_376>:
  4018f3:	8d 87 48 89 e0 91    	lea    -0x6e1f76b8(%rdi),%eax
  4018f9:	c3                   	retq   

00000000004018fa <setval_145>:
  4018fa:	c7 07 88 c1 08 db    	movl   $0xdb08c188,(%rdi)
  401900:	c3                   	retq   

0000000000401901 <addval_319>:
  401901:	8d 87 c9 ca 08 d2    	lea    -0x2df73537(%rdi),%eax
  401907:	c3                   	retq   

0000000000401908 <setval_287>:
  401908:	c7 07 c2 48 09 e0    	movl   $0xe00948c2,(%rdi)
  40190e:	c3                   	retq   

000000000040190f <getval_380>:
  40190f:	b8 95 09 c1 90       	mov    $0x90c10995,%eax
  401914:	c3                   	retq   

0000000000401915 <addval_421>:
  401915:	8d 87 70 09 ca 90    	lea    -0x6f35f690(%rdi),%eax
  40191b:	c3                   	retq   

000000000040191c <getval_343>:
  40191c:	b8 89 c1 90 90       	mov    $0x9090c189,%eax
  401921:	c3                   	retq   

0000000000401922 <end_farm>:
  401922:	b8 01 00 00 00       	mov    $0x1,%eax
  401927:	c3                   	retq   
  401928:	90                   	nop
  401929:	90                   	nop
  40192a:	90                   	nop
  40192b:	90                   	nop
  40192c:	90                   	nop
  40192d:	90                   	nop
  40192e:	90                   	nop
  40192f:	90                   	nop

0000000000401930 <check_fail>:
  401930:	48 83 ec 08          	sub    $0x8,%rsp
  401934:	0f be 35 c9 39 20 00 	movsbl 0x2039c9(%rip),%esi        # 605304 <target_prefix>
  40193b:	b9 00 47 60 00       	mov    $0x604700,%ecx
  401940:	8b 15 8a 2d 20 00    	mov    0x202d8a(%rip),%edx        # 6046d0 <check_level>
  401946:	bf 04 2f 40 00       	mov    $0x402f04,%edi
  40194b:	b8 00 00 00 00       	mov    $0x0,%eax
  401950:	e8 2b f2 ff ff       	callq  400b80 <printf@plt>
  401955:	bf 01 00 00 00       	mov    $0x1,%edi
  40195a:	e8 81 f2 ff ff       	callq  400be0 <exit@plt>

000000000040195f <launch>:
  40195f:	55                   	push   %rbp
  401960:	48 89 e5             	mov    %rsp,%rbp
  401963:	48 89 fa             	mov    %rdi,%rdx
  401966:	48 8d 47 1e          	lea    0x1e(%rdi),%rax
  40196a:	48 83 e0 f0          	and    $0xfffffffffffffff0,%rax
  40196e:	48 29 c4             	sub    %rax,%rsp
  401971:	48 8d 7c 24 0f       	lea    0xf(%rsp),%rdi
  401976:	48 83 e7 f0          	and    $0xfffffffffffffff0,%rdi
  40197a:	be f4 00 00 00       	mov    $0xf4,%esi
  40197f:	e8 0c f2 ff ff       	callq  400b90 <memset@plt>
  401984:	48 8b 05 f5 2c 20 00 	mov    0x202cf5(%rip),%rax        # 604680 <stdin@@GLIBC_2.2.5>
  40198b:	48 39 05 46 2d 20 00 	cmp    %rax,0x202d46(%rip)        # 6046d8 <infile>
  401992:	75 0f                	jne    4019a3 <launch+0x44>
  401994:	bf 1a 2f 40 00       	mov    $0x402f1a,%edi
  401999:	b8 00 00 00 00       	mov    $0x0,%eax
  40199e:	e8 dd f1 ff ff       	callq  400b80 <printf@plt>
  4019a3:	c7 05 1f 2d 20 00 00 	movl   $0x0,0x202d1f(%rip)        # 6046cc <vlevel>
  4019aa:	00 00 00 
  4019ad:	b8 00 00 00 00       	mov    $0x0,%eax
  4019b2:	e8 ad fc ff ff       	callq  401664 <test>
  4019b7:	83 3d 02 2d 20 00 00 	cmpl   $0x0,0x202d02(%rip)        # 6046c0 <is_checker>
  4019be:	74 16                	je     4019d6 <launch+0x77>
  4019c0:	bf 27 2f 40 00       	mov    $0x402f27,%edi
  4019c5:	e8 f6 f1 ff ff       	callq  400bc0 <puts@plt>
  4019ca:	b8 00 00 00 00       	mov    $0x0,%eax
  4019cf:	e8 5c ff ff ff       	callq  401930 <check_fail>
  4019d4:	eb 0a                	jmp    4019e0 <launch+0x81>
  4019d6:	bf 32 2f 40 00       	mov    $0x402f32,%edi
  4019db:	e8 e0 f1 ff ff       	callq  400bc0 <puts@plt>
  4019e0:	c9                   	leaveq 
  4019e1:	c3                   	retq   

00000000004019e2 <stable_launch>:
  4019e2:	48 83 ec 08          	sub    $0x8,%rsp
  4019e6:	48 89 3d f3 2c 20 00 	mov    %rdi,0x202cf3(%rip)        # 6046e0 <global_offset>
  4019ed:	41 b9 00 00 00 00    	mov    $0x0,%r9d
  4019f3:	41 b8 00 00 00 00    	mov    $0x0,%r8d
  4019f9:	b9 32 01 00 00       	mov    $0x132,%ecx
  4019fe:	ba 07 00 00 00       	mov    $0x7,%edx
  401a03:	be 00 00 10 00       	mov    $0x100000,%esi
  401a08:	bf 00 60 58 55       	mov    $0x55586000,%edi
  401a0d:	e8 5e f3 ff ff       	callq  400d70 <mmap@plt>
  401a12:	48 3d 00 60 58 55    	cmp    $0x55586000,%rax
  401a18:	74 32                	je     401a4c <stable_launch+0x6a>
  401a1a:	be 00 00 10 00       	mov    $0x100000,%esi
  401a1f:	48 89 c7             	mov    %rax,%rdi
  401a22:	e8 f9 f2 ff ff       	callq  400d20 <munmap@plt>
  401a27:	ba 00 60 58 55       	mov    $0x55586000,%edx
  401a2c:	be 38 30 40 00       	mov    $0x403038,%esi
  401a31:	48 8b 3d 70 2c 20 00 	mov    0x202c70(%rip),%rdi        # 6046a8 <stderr@@GLIBC_2.2.5>
  401a38:	b8 00 00 00 00       	mov    $0x0,%eax
  401a3d:	e8 fe f2 ff ff       	callq  400d40 <fprintf@plt>
  401a42:	bf 01 00 00 00       	mov    $0x1,%edi
  401a47:	e8 94 f1 ff ff       	callq  400be0 <exit@plt>
  401a4c:	48 c7 05 b1 38 20 00 	movq   $0x55685ff8,0x2038b1(%rip)        # 605308 <stack_top>
  401a53:	f8 5f 68 55 
  401a57:	ba f8 5f 68 55       	mov    $0x55685ff8,%edx
  401a5c:	48 89 e0             	mov    %rsp,%rax
  401a5f:	48 89 d4             	mov    %rdx,%rsp
  401a62:	48 89 c2             	mov    %rax,%rdx
  401a65:	48 89 15 7c 2c 20 00 	mov    %rdx,0x202c7c(%rip)        # 6046e8 <global_save_stack>
  401a6c:	48 8b 3d 6d 2c 20 00 	mov    0x202c6d(%rip),%rdi        # 6046e0 <global_offset>
  401a73:	e8 e7 fe ff ff       	callq  40195f <launch>
  401a78:	48 8b 05 69 2c 20 00 	mov    0x202c69(%rip),%rax        # 6046e8 <global_save_stack>
  401a7f:	48 89 c4             	mov    %rax,%rsp
  401a82:	be 00 00 10 00       	mov    $0x100000,%esi
  401a87:	bf 00 60 58 55       	mov    $0x55586000,%edi
  401a8c:	e8 8f f2 ff ff       	callq  400d20 <munmap@plt>
  401a91:	48 83 c4 08          	add    $0x8,%rsp
  401a95:	c3                   	retq   

0000000000401a96 <notify_server>:
  401a96:	53                   	push   %rbx
  401a97:	48 81 ec 10 40 00 00 	sub    $0x4010,%rsp
  401a9e:	89 fb                	mov    %edi,%ebx
  401aa0:	83 3d 19 2c 20 00 00 	cmpl   $0x0,0x202c19(%rip)        # 6046c0 <is_checker>
  401aa7:	0f 85 78 01 00 00    	jne    401c25 <notify_server+0x18f>
  401aad:	8b 05 3d 2c 20 00    	mov    0x202c3d(%rip),%eax        # 6046f0 <gets_cnt>
  401ab3:	83 c0 64             	add    $0x64,%eax
  401ab6:	3d 00 20 00 00       	cmp    $0x2000,%eax
  401abb:	7e 19                	jle    401ad6 <notify_server+0x40>
  401abd:	bf 60 30 40 00       	mov    $0x403060,%edi
  401ac2:	b8 00 00 00 00       	mov    $0x0,%eax
  401ac7:	e8 b4 f0 ff ff       	callq  400b80 <printf@plt>
  401acc:	bf 01 00 00 00       	mov    $0x1,%edi
  401ad1:	e8 0a f1 ff ff       	callq  400be0 <exit@plt>
  401ad6:	83 3d 83 2b 20 00 00 	cmpl   $0x0,0x202b83(%rip)        # 604660 <notify>
  401add:	41 b8 ff ff ff ff    	mov    $0xffffffff,%r8d
  401ae3:	44 0f 45 05 dd 2b 20 	cmovne 0x202bdd(%rip),%r8d        # 6046c8 <authkey>
  401aea:	00 
  401aeb:	85 ff                	test   %edi,%edi
  401aed:	b8 40 2f 40 00       	mov    $0x402f40,%eax
  401af2:	b9 45 2f 40 00       	mov    $0x402f45,%ecx
  401af7:	48 0f 44 c8          	cmove  %rax,%rcx
  401afb:	44 0f be 0d 01 38 20 	movsbl 0x203801(%rip),%r9d        # 605304 <target_prefix>
  401b02:	00 
  401b03:	48 8d bc 24 10 20 00 	lea    0x2010(%rsp),%rdi
  401b0a:	00 
  401b0b:	48 c7 44 24 08 00 47 	movq   $0x604700,0x8(%rsp)
  401b12:	60 00 
  401b14:	89 34 24             	mov    %esi,(%rsp)
  401b17:	8b 15 2b 2b 20 00    	mov    0x202b2b(%rip),%edx        # 604648 <target_id>
  401b1d:	be 4a 2f 40 00       	mov    $0x402f4a,%esi
  401b22:	b8 00 00 00 00       	mov    $0x0,%eax
  401b27:	e8 54 f1 ff ff       	callq  400c80 <sprintf@plt>
  401b2c:	83 3d 2d 2b 20 00 00 	cmpl   $0x0,0x202b2d(%rip)        # 604660 <notify>
  401b33:	74 78                	je     401bad <notify_server+0x117>
  401b35:	85 db                	test   %ebx,%ebx
  401b37:	74 68                	je     401ba1 <notify_server+0x10b>
  401b39:	48 8d 8c 24 10 20 00 	lea    0x2010(%rsp),%rcx
  401b40:	00 
  401b41:	4c 8d 4c 24 10       	lea    0x10(%rsp),%r9
  401b46:	41 b8 00 00 00 00    	mov    $0x0,%r8d
  401b4c:	48 8b 15 ed 2a 20 00 	mov    0x202aed(%rip),%rdx        # 604640 <lab>
  401b53:	48 8b 35 a6 27 20 00 	mov    0x2027a6(%rip),%rsi        # 604300 <course>
  401b5a:	48 8b 3d ef 2a 20 00 	mov    0x202aef(%rip),%rdi        # 604650 <user_id>
  401b61:	e8 26 0d 00 00       	callq  40288c <driver_post>
  401b66:	85 c0                	test   %eax,%eax
  401b68:	79 1e                	jns    401b88 <notify_server+0xf2>
  401b6a:	48 8d 74 24 10       	lea    0x10(%rsp),%rsi
  401b6f:	bf 66 2f 40 00       	mov    $0x402f66,%edi
  401b74:	b8 00 00 00 00       	mov    $0x0,%eax
  401b79:	e8 02 f0 ff ff       	callq  400b80 <printf@plt>
  401b7e:	bf 01 00 00 00       	mov    $0x1,%edi
  401b83:	e8 58 f0 ff ff       	callq  400be0 <exit@plt>
  401b88:	bf 90 30 40 00       	mov    $0x403090,%edi
  401b8d:	e8 2e f0 ff ff       	callq  400bc0 <puts@plt>
  401b92:	bf 72 2f 40 00       	mov    $0x402f72,%edi
  401b97:	e8 24 f0 ff ff       	callq  400bc0 <puts@plt>
  401b9c:	e9 84 00 00 00       	jmpq   401c25 <notify_server+0x18f>
  401ba1:	bf 7c 2f 40 00       	mov    $0x402f7c,%edi
  401ba6:	e8 15 f0 ff ff       	callq  400bc0 <puts@plt>
  401bab:	eb 78                	jmp    401c25 <notify_server+0x18f>
  401bad:	85 db                	test   %ebx,%ebx
  401baf:	b8 40 2f 40 00       	mov    $0x402f40,%eax
  401bb4:	be 45 2f 40 00       	mov    $0x402f45,%esi
  401bb9:	48 0f 44 f0          	cmove  %rax,%rsi
  401bbd:	bf c8 30 40 00       	mov    $0x4030c8,%edi
  401bc2:	b8 00 00 00 00       	mov    $0x0,%eax
  401bc7:	e8 b4 ef ff ff       	callq  400b80 <printf@plt>
  401bcc:	48 8b 35 7d 2a 20 00 	mov    0x202a7d(%rip),%rsi        # 604650 <user_id>
  401bd3:	bf 83 2f 40 00       	mov    $0x402f83,%edi
  401bd8:	b8 00 00 00 00       	mov    $0x0,%eax
  401bdd:	e8 9e ef ff ff       	callq  400b80 <printf@plt>
  401be2:	48 8b 35 17 27 20 00 	mov    0x202717(%rip),%rsi        # 604300 <course>
  401be9:	bf 90 2f 40 00       	mov    $0x402f90,%edi
  401bee:	b8 00 00 00 00       	mov    $0x0,%eax
  401bf3:	e8 88 ef ff ff       	callq  400b80 <printf@plt>
  401bf8:	48 8b 35 41 2a 20 00 	mov    0x202a41(%rip),%rsi        # 604640 <lab>
  401bff:	bf 9c 2f 40 00       	mov    $0x402f9c,%edi
  401c04:	b8 00 00 00 00       	mov    $0x0,%eax
  401c09:	e8 72 ef ff ff       	callq  400b80 <printf@plt>
  401c0e:	48 8d b4 24 10 20 00 	lea    0x2010(%rsp),%rsi
  401c15:	00 
  401c16:	bf a5 2f 40 00       	mov    $0x402fa5,%edi
  401c1b:	b8 00 00 00 00       	mov    $0x0,%eax
  401c20:	e8 5b ef ff ff       	callq  400b80 <printf@plt>
  401c25:	48 81 c4 10 40 00 00 	add    $0x4010,%rsp
  401c2c:	5b                   	pop    %rbx
  401c2d:	c3                   	retq   

0000000000401c2e <sigalrmhandler>:
  401c2e:	48 83 ec 08          	sub    $0x8,%rsp
  401c32:	83 3d 87 2a 20 00 00 	cmpl   $0x0,0x202a87(%rip)        # 6046c0 <is_checker>
  401c39:	74 16                	je     401c51 <sigalrmhandler+0x23>
  401c3b:	bf b1 2f 40 00       	mov    $0x402fb1,%edi
  401c40:	e8 7b ef ff ff       	callq  400bc0 <puts@plt>
  401c45:	b8 00 00 00 00       	mov    $0x0,%eax
  401c4a:	e8 e1 fc ff ff       	callq  401930 <check_fail>
  401c4f:	eb 23                	jmp    401c74 <sigalrmhandler+0x46>
  401c51:	be 05 00 00 00       	mov    $0x5,%esi
  401c56:	bf f0 30 40 00       	mov    $0x4030f0,%edi
  401c5b:	b8 00 00 00 00       	mov    $0x0,%eax
  401c60:	e8 1b ef ff ff       	callq  400b80 <printf@plt>
  401c65:	be 00 00 00 00       	mov    $0x0,%esi
  401c6a:	bf 00 00 00 00       	mov    $0x0,%edi
  401c6f:	e8 22 fe ff ff       	callq  401a96 <notify_server>
  401c74:	bf 01 00 00 00       	mov    $0x1,%edi
  401c79:	e8 62 ef ff ff       	callq  400be0 <exit@plt>

0000000000401c7e <illegalhandler>:
  401c7e:	48 83 ec 08          	sub    $0x8,%rsp
  401c82:	83 3d 37 2a 20 00 00 	cmpl   $0x0,0x202a37(%rip)        # 6046c0 <is_checker>
  401c89:	74 16                	je     401ca1 <illegalhandler+0x23>
  401c8b:	bf b9 2f 40 00       	mov    $0x402fb9,%edi
  401c90:	e8 2b ef ff ff       	callq  400bc0 <puts@plt>
  401c95:	b8 00 00 00 00       	mov    $0x0,%eax
  401c9a:	e8 91 fc ff ff       	callq  401930 <check_fail>
  401c9f:	eb 23                	jmp    401cc4 <illegalhandler+0x46>
  401ca1:	bf 28 31 40 00       	mov    $0x403128,%edi
  401ca6:	e8 15 ef ff ff       	callq  400bc0 <puts@plt>
  401cab:	bf cd 2f 40 00       	mov    $0x402fcd,%edi
  401cb0:	e8 0b ef ff ff       	callq  400bc0 <puts@plt>
  401cb5:	be 00 00 00 00       	mov    $0x0,%esi
  401cba:	bf 00 00 00 00       	mov    $0x0,%edi
  401cbf:	e8 d2 fd ff ff       	callq  401a96 <notify_server>
  401cc4:	bf 01 00 00 00       	mov    $0x1,%edi
  401cc9:	e8 12 ef ff ff       	callq  400be0 <exit@plt>

0000000000401cce <seghandler>:
  401cce:	48 83 ec 08          	sub    $0x8,%rsp
  401cd2:	83 3d e7 29 20 00 00 	cmpl   $0x0,0x2029e7(%rip)        # 6046c0 <is_checker>
  401cd9:	74 16                	je     401cf1 <seghandler+0x23>
  401cdb:	bf e3 2f 40 00       	mov    $0x402fe3,%edi
  401ce0:	e8 db ee ff ff       	callq  400bc0 <puts@plt>
  401ce5:	b8 00 00 00 00       	mov    $0x0,%eax
  401cea:	e8 41 fc ff ff       	callq  401930 <check_fail>
  401cef:	eb 23                	jmp    401d14 <seghandler+0x46>
  401cf1:	bf 58 31 40 00       	mov    $0x403158,%edi
  401cf6:	e8 c5 ee ff ff       	callq  400bc0 <puts@plt>
  401cfb:	bf cd 2f 40 00       	mov    $0x402fcd,%edi
  401d00:	e8 bb ee ff ff       	callq  400bc0 <puts@plt>
  401d05:	be 00 00 00 00       	mov    $0x0,%esi
  401d0a:	bf 00 00 00 00       	mov    $0x0,%edi
  401d0f:	e8 82 fd ff ff       	callq  401a96 <notify_server>
  401d14:	bf 01 00 00 00       	mov    $0x1,%edi
  401d19:	e8 c2 ee ff ff       	callq  400be0 <exit@plt>

0000000000401d1e <bushandler>:
  401d1e:	48 83 ec 08          	sub    $0x8,%rsp
  401d22:	83 3d 97 29 20 00 00 	cmpl   $0x0,0x202997(%rip)        # 6046c0 <is_checker>
  401d29:	74 16                	je     401d41 <bushandler+0x23>
  401d2b:	bf f6 2f 40 00       	mov    $0x402ff6,%edi
  401d30:	e8 8b ee ff ff       	callq  400bc0 <puts@plt>
  401d35:	b8 00 00 00 00       	mov    $0x0,%eax
  401d3a:	e8 f1 fb ff ff       	callq  401930 <check_fail>
  401d3f:	eb 23                	jmp    401d64 <bushandler+0x46>
  401d41:	bf 80 31 40 00       	mov    $0x403180,%edi
  401d46:	e8 75 ee ff ff       	callq  400bc0 <puts@plt>
  401d4b:	bf cd 2f 40 00       	mov    $0x402fcd,%edi
  401d50:	e8 6b ee ff ff       	callq  400bc0 <puts@plt>
  401d55:	be 00 00 00 00       	mov    $0x0,%esi
  401d5a:	bf 00 00 00 00       	mov    $0x0,%edi
  401d5f:	e8 32 fd ff ff       	callq  401a96 <notify_server>
  401d64:	bf 01 00 00 00       	mov    $0x1,%edi
  401d69:	e8 72 ee ff ff       	callq  400be0 <exit@plt>

0000000000401d6e <fail>:
  401d6e:	48 83 ec 08          	sub    $0x8,%rsp
  401d72:	83 3d 47 29 20 00 00 	cmpl   $0x0,0x202947(%rip)        # 6046c0 <is_checker>
  401d79:	74 0c                	je     401d87 <fail+0x19>
  401d7b:	b8 00 00 00 00       	mov    $0x0,%eax
  401d80:	e8 ab fb ff ff       	callq  401930 <check_fail>
  401d85:	eb 0c                	jmp    401d93 <fail+0x25>
  401d87:	89 fe                	mov    %edi,%esi
  401d89:	bf 00 00 00 00       	mov    $0x0,%edi
  401d8e:	e8 03 fd ff ff       	callq  401a96 <notify_server>
  401d93:	48 83 c4 08          	add    $0x8,%rsp
  401d97:	c3                   	retq   

0000000000401d98 <validate>:
  401d98:	48 89 5c 24 f0       	mov    %rbx,-0x10(%rsp)
  401d9d:	48 89 6c 24 f8       	mov    %rbp,-0x8(%rsp)
  401da2:	48 83 ec 18          	sub    $0x18,%rsp
  401da6:	89 fb                	mov    %edi,%ebx
  401da8:	83 3d 11 29 20 00 00 	cmpl   $0x0,0x202911(%rip)        # 6046c0 <is_checker>
  401daf:	74 65                	je     401e16 <validate+0x7e>
  401db1:	8b 15 15 29 20 00    	mov    0x202915(%rip),%edx        # 6046cc <vlevel>
  401db7:	39 fa                	cmp    %edi,%edx
  401db9:	74 19                	je     401dd4 <validate+0x3c>
  401dbb:	bf 00 30 40 00       	mov    $0x403000,%edi
  401dc0:	e8 fb ed ff ff       	callq  400bc0 <puts@plt>
  401dc5:	b8 00 00 00 00       	mov    $0x0,%eax
  401dca:	e8 61 fb ff ff       	callq  401930 <check_fail>
  401dcf:	e9 88 00 00 00       	jmpq   401e5c <validate+0xc4>
  401dd4:	8b 35 f6 28 20 00    	mov    0x2028f6(%rip),%esi        # 6046d0 <check_level>
  401dda:	39 f2                	cmp    %esi,%edx
  401ddc:	74 1b                	je     401df9 <validate+0x61>
  401dde:	bf a0 31 40 00       	mov    $0x4031a0,%edi
  401de3:	b8 00 00 00 00       	mov    $0x0,%eax
  401de8:	e8 93 ed ff ff       	callq  400b80 <printf@plt>
  401ded:	b8 00 00 00 00       	mov    $0x0,%eax
  401df2:	e8 39 fb ff ff       	callq  401930 <check_fail>
  401df7:	eb 63                	jmp    401e5c <validate+0xc4>
  401df9:	0f be 35 04 35 20 00 	movsbl 0x203504(%rip),%esi        # 605304 <target_prefix>
  401e00:	b9 00 47 60 00       	mov    $0x604700,%ecx
  401e05:	bf 1e 30 40 00       	mov    $0x40301e,%edi
  401e0a:	b8 00 00 00 00       	mov    $0x0,%eax
  401e0f:	e8 6c ed ff ff       	callq  400b80 <printf@plt>
  401e14:	eb 46                	jmp    401e5c <validate+0xc4>
  401e16:	8b 2d b0 28 20 00    	mov    0x2028b0(%rip),%ebp        # 6046cc <vlevel>
  401e1c:	39 fd                	cmp    %edi,%ebp
  401e1e:	74 18                	je     401e38 <validate+0xa0>
  401e20:	bf 00 30 40 00       	mov    $0x403000,%edi
  401e25:	e8 96 ed ff ff       	callq  400bc0 <puts@plt>
  401e2a:	89 de                	mov    %ebx,%esi
  401e2c:	bf 00 00 00 00       	mov    $0x0,%edi
  401e31:	e8 60 fc ff ff       	callq  401a96 <notify_server>
  401e36:	eb 24                	jmp    401e5c <validate+0xc4>
  401e38:	0f be 15 c5 34 20 00 	movsbl 0x2034c5(%rip),%edx        # 605304 <target_prefix>
  401e3f:	89 ee                	mov    %ebp,%esi
  401e41:	bf c8 31 40 00       	mov    $0x4031c8,%edi
  401e46:	b8 00 00 00 00       	mov    $0x0,%eax
  401e4b:	e8 30 ed ff ff       	callq  400b80 <printf@plt>
  401e50:	89 ee                	mov    %ebp,%esi
  401e52:	bf 01 00 00 00       	mov    $0x1,%edi
  401e57:	e8 3a fc ff ff       	callq  401a96 <notify_server>
  401e5c:	48 8b 5c 24 08       	mov    0x8(%rsp),%rbx
  401e61:	48 8b 6c 24 10       	mov    0x10(%rsp),%rbp
  401e66:	48 83 c4 18          	add    $0x18,%rsp
  401e6a:	c3                   	retq   

0000000000401e6b <Gets>:
  401e6b:	41 55                	push   %r13
  401e6d:	41 54                	push   %r12
  401e6f:	55                   	push   %rbp
  401e70:	53                   	push   %rbx
  401e71:	48 83 ec 08          	sub    $0x8,%rsp
  401e75:	49 89 fd             	mov    %rdi,%r13
  401e78:	c7 05 6e 28 20 00 00 	movl   $0x0,0x20286e(%rip)        # 6046f0 <gets_cnt>
  401e7f:	00 00 00 
  401e82:	48 89 fb             	mov    %rdi,%rbx
  401e85:	41 bc 00 47 60 00    	mov    $0x604700,%r12d
  401e8b:	bd 00 32 40 00       	mov    $0x403200,%ebp
  401e90:	eb 55                	jmp    401ee7 <Gets+0x7c>
  401e92:	88 03                	mov    %al,(%rbx)
  401e94:	8b 15 56 28 20 00    	mov    0x202856(%rip),%edx        # 6046f0 <gets_cnt>
  401e9a:	81 fa ff 03 00 00    	cmp    $0x3ff,%edx
  401ea0:	7f 41                	jg     401ee3 <Gets+0x78>
  401ea2:	41 89 c0             	mov    %eax,%r8d
  401ea5:	8d 0c 52             	lea    (%rdx,%rdx,2),%ecx
  401ea8:	48 63 f1             	movslq %ecx,%rsi
  401eab:	c0 e8 04             	shr    $0x4,%al
  401eae:	0f b6 f8             	movzbl %al,%edi
  401eb1:	0f b6 7c 3d 00       	movzbl 0x0(%rbp,%rdi,1),%edi
  401eb6:	41 88 3c 34          	mov    %dil,(%r12,%rsi,1)
  401eba:	8d 71 01             	lea    0x1(%rcx),%esi
  401ebd:	48 63 f6             	movslq %esi,%rsi
  401ec0:	4c 89 c0             	mov    %r8,%rax
  401ec3:	83 e0 0f             	and    $0xf,%eax
  401ec6:	0f b6 44 05 00       	movzbl 0x0(%rbp,%rax,1),%eax
  401ecb:	41 88 04 34          	mov    %al,(%r12,%rsi,1)
  401ecf:	83 c1 02             	add    $0x2,%ecx
  401ed2:	48 63 c9             	movslq %ecx,%rcx
  401ed5:	41 c6 04 0c 20       	movb   $0x20,(%r12,%rcx,1)
  401eda:	83 c2 01             	add    $0x1,%edx
  401edd:	89 15 0d 28 20 00    	mov    %edx,0x20280d(%rip)        # 6046f0 <gets_cnt>
  401ee3:	48 83 c3 01          	add    $0x1,%rbx
  401ee7:	48 8b 3d ea 27 20 00 	mov    0x2027ea(%rip),%rdi        # 6046d8 <infile>
  401eee:	e8 6d ed ff ff       	callq  400c60 <_IO_getc@plt>
  401ef3:	83 f8 ff             	cmp    $0xffffffffffffffff,%eax
  401ef6:	74 05                	je     401efd <Gets+0x92>
  401ef8:	83 f8 0a             	cmp    $0xa,%eax
  401efb:	75 95                	jne    401e92 <Gets+0x27>
  401efd:	c6 03 00             	movb   $0x0,(%rbx)
  401f00:	8b 05 ea 27 20 00    	mov    0x2027ea(%rip),%eax        # 6046f0 <gets_cnt>
  401f06:	8d 04 40             	lea    (%rax,%rax,2),%eax
  401f09:	48 98                	cltq   
  401f0b:	c6 80 00 47 60 00 00 	movb   $0x0,0x604700(%rax)
  401f12:	4c 89 e8             	mov    %r13,%rax
  401f15:	48 83 c4 08          	add    $0x8,%rsp
  401f19:	5b                   	pop    %rbx
  401f1a:	5d                   	pop    %rbp
  401f1b:	41 5c                	pop    %r12
  401f1d:	41 5d                	pop    %r13
  401f1f:	c3                   	retq   

0000000000401f20 <init_driver>:
  401f20:	41 54                	push   %r12
  401f22:	55                   	push   %rbp
  401f23:	53                   	push   %rbx
  401f24:	48 83 ec 10          	sub    $0x10,%rsp
  401f28:	49 89 fc             	mov    %rdi,%r12
  401f2b:	be 01 00 00 00       	mov    $0x1,%esi
  401f30:	bf 0d 00 00 00       	mov    $0xd,%edi
  401f35:	e8 96 ed ff ff       	callq  400cd0 <signal@plt>
  401f3a:	be 01 00 00 00       	mov    $0x1,%esi
  401f3f:	bf 1d 00 00 00       	mov    $0x1d,%edi
  401f44:	e8 87 ed ff ff       	callq  400cd0 <signal@plt>
  401f49:	be 01 00 00 00       	mov    $0x1,%esi
  401f4e:	bf 1d 00 00 00       	mov    $0x1d,%edi
  401f53:	e8 78 ed ff ff       	callq  400cd0 <signal@plt>
  401f58:	ba 00 00 00 00       	mov    $0x0,%edx
  401f5d:	be 01 00 00 00       	mov    $0x1,%esi
  401f62:	bf 02 00 00 00       	mov    $0x2,%edi
  401f67:	e8 74 ed ff ff       	callq  400ce0 <socket@plt>
  401f6c:	89 c5                	mov    %eax,%ebp
  401f6e:	85 c0                	test   %eax,%eax
  401f70:	79 62                	jns    401fd4 <init_driver+0xb4>
  401f72:	41 c7 04 24 45 72 72 	movl   $0x6f727245,(%r12)
  401f79:	6f 
  401f7a:	41 c7 44 24 04 72 3a 	movl   $0x43203a72,0x4(%r12)
  401f81:	20 43 
  401f83:	41 c7 44 24 08 6c 69 	movl   $0x6e65696c,0x8(%r12)
  401f8a:	65 6e 
  401f8c:	41 c7 44 24 0c 74 20 	movl   $0x6e752074,0xc(%r12)
  401f93:	75 6e 
  401f95:	41 c7 44 24 10 61 62 	movl   $0x656c6261,0x10(%r12)
  401f9c:	6c 65 
  401f9e:	41 c7 44 24 14 20 74 	movl   $0x206f7420,0x14(%r12)
  401fa5:	6f 20 
  401fa7:	41 c7 44 24 18 63 72 	movl   $0x61657263,0x18(%r12)
  401fae:	65 61 
  401fb0:	41 c7 44 24 1c 74 65 	movl   $0x73206574,0x1c(%r12)
  401fb7:	20 73 
  401fb9:	41 c7 44 24 20 6f 63 	movl   $0x656b636f,0x20(%r12)
  401fc0:	6b 65 
  401fc2:	66 41 c7 44 24 24 74 	movw   $0x74,0x24(%r12)
  401fc9:	00 
  401fca:	b8 ff ff ff ff       	mov    $0xffffffff,%eax
  401fcf:	e9 56 01 00 00       	jmpq   40212a <init_driver+0x20a>
  401fd4:	bf d0 2d 40 00       	mov    $0x402dd0,%edi
  401fd9:	e8 d2 eb ff ff       	callq  400bb0 <gethostbyname@plt>
  401fde:	48 85 c0             	test   %rax,%rax
  401fe1:	0f 85 81 00 00 00    	jne    402068 <init_driver+0x148>
  401fe7:	41 c7 04 24 45 72 72 	movl   $0x6f727245,(%r12)
  401fee:	6f 
  401fef:	41 c7 44 24 04 72 3a 	movl   $0x44203a72,0x4(%r12)
  401ff6:	20 44 
  401ff8:	41 c7 44 24 08 4e 53 	movl   $0x6920534e,0x8(%r12)
  401fff:	20 69 
  402001:	41 c7 44 24 0c 73 20 	movl   $0x6e752073,0xc(%r12)
  402008:	75 6e 
  40200a:	41 c7 44 24 10 61 62 	movl   $0x656c6261,0x10(%r12)
  402011:	6c 65 
  402013:	41 c7 44 24 14 20 74 	movl   $0x206f7420,0x14(%r12)
  40201a:	6f 20 
  40201c:	41 c7 44 24 18 72 65 	movl   $0x6f736572,0x18(%r12)
  402023:	73 6f 
  402025:	41 c7 44 24 1c 6c 76 	movl   $0x2065766c,0x1c(%r12)
  40202c:	65 20 
  40202e:	41 c7 44 24 20 73 65 	movl   $0x76726573,0x20(%r12)
  402035:	72 76 
  402037:	41 c7 44 24 24 65 72 	movl   $0x61207265,0x24(%r12)
  40203e:	20 61 
  402040:	41 c7 44 24 28 64 64 	movl   $0x65726464,0x28(%r12)
  402047:	72 65 
  402049:	66 41 c7 44 24 2c 73 	movw   $0x7373,0x2c(%r12)
  402050:	73 
  402051:	41 c6 44 24 2e 00    	movb   $0x0,0x2e(%r12)
  402057:	89 ef                	mov    %ebp,%edi
  402059:	e8 42 eb ff ff       	callq  400ba0 <close@plt>
  40205e:	b8 ff ff ff ff       	mov    $0xffffffff,%eax
  402063:	e9 c2 00 00 00       	jmpq   40212a <init_driver+0x20a>
  402068:	48 c7 04 24 00 00 00 	movq   $0x0,(%rsp)
  40206f:	00 
  402070:	48 c7 44 24 08 00 00 	movq   $0x0,0x8(%rsp)
  402077:	00 00 
  402079:	66 c7 04 24 02 00    	movw   $0x2,(%rsp)
  40207f:	48 63 50 14          	movslq 0x14(%rax),%rdx
  402083:	48 8d 74 24 04       	lea    0x4(%rsp),%rsi
  402088:	48 8b 40 18          	mov    0x18(%rax),%rax
  40208c:	48 8b 38             	mov    (%rax),%rdi
  40208f:	e8 dc eb ff ff       	callq  400c70 <bcopy@plt>
  402094:	66 c7 44 24 02 3c 9a 	movw   $0x9a3c,0x2(%rsp)
  40209b:	ba 10 00 00 00       	mov    $0x10,%edx
  4020a0:	48 89 e6             	mov    %rsp,%rsi
  4020a3:	89 ef                	mov    %ebp,%edi
  4020a5:	e8 f6 eb ff ff       	callq  400ca0 <connect@plt>
  4020aa:	85 c0                	test   %eax,%eax
  4020ac:	79 63                	jns    402111 <init_driver+0x1f1>
  4020ae:	41 c7 04 24 45 72 72 	movl   $0x6f727245,(%r12)
  4020b5:	6f 
  4020b6:	41 c7 44 24 04 72 3a 	movl   $0x55203a72,0x4(%r12)
  4020bd:	20 55 
  4020bf:	41 c7 44 24 08 6e 61 	movl   $0x6c62616e,0x8(%r12)
  4020c6:	62 6c 
  4020c8:	41 c7 44 24 0c 65 20 	movl   $0x6f742065,0xc(%r12)
  4020cf:	74 6f 
  4020d1:	41 c7 44 24 10 20 63 	movl   $0x6e6f6320,0x10(%r12)
  4020d8:	6f 6e 
  4020da:	41 c7 44 24 14 6e 65 	movl   $0x7463656e,0x14(%r12)
  4020e1:	63 74 
  4020e3:	41 c7 44 24 18 20 74 	movl   $0x206f7420,0x18(%r12)
  4020ea:	6f 20 
  4020ec:	41 c7 44 24 1c 73 65 	movl   $0x76726573,0x1c(%r12)
  4020f3:	72 76 
  4020f5:	66 41 c7 44 24 20 65 	movw   $0x7265,0x20(%r12)
  4020fc:	72 
  4020fd:	41 c6 44 24 22 00    	movb   $0x0,0x22(%r12)
  402103:	89 ef                	mov    %ebp,%edi
  402105:	e8 96 ea ff ff       	callq  400ba0 <close@plt>
  40210a:	b8 ff ff ff ff       	mov    $0xffffffff,%eax
  40210f:	eb 19                	jmp    40212a <init_driver+0x20a>
  402111:	89 ef                	mov    %ebp,%edi
  402113:	e8 88 ea ff ff       	callq  400ba0 <close@plt>
  402118:	66 41 c7 04 24 4f 4b 	movw   $0x4b4f,(%r12)
  40211f:	41 c6 44 24 02 00    	movb   $0x0,0x2(%r12)
  402125:	b8 00 00 00 00       	mov    $0x0,%eax
  40212a:	48 83 c4 10          	add    $0x10,%rsp
  40212e:	5b                   	pop    %rbx
  40212f:	5d                   	pop    %rbp
  402130:	41 5c                	pop    %r12
  402132:	c3                   	retq   

0000000000402133 <init_timeout>:
  402133:	53                   	push   %rbx
  402134:	89 fb                	mov    %edi,%ebx
  402136:	85 ff                	test   %edi,%edi
  402138:	74 1e                	je     402158 <init_timeout+0x25>
  40213a:	be fa 28 40 00       	mov    $0x4028fa,%esi
  40213f:	bf 0e 00 00 00       	mov    $0xe,%edi
  402144:	e8 87 eb ff ff       	callq  400cd0 <signal@plt>
  402149:	85 db                	test   %ebx,%ebx
  40214b:	bf 00 00 00 00       	mov    $0x0,%edi
  402150:	0f 49 fb             	cmovns %ebx,%edi
  402153:	e8 98 eb ff ff       	callq  400cf0 <alarm@plt>
  402158:	5b                   	pop    %rbx
  402159:	c3                   	retq   

000000000040215a <rio_readlineb>:
  40215a:	41 57                	push   %r15
  40215c:	41 56                	push   %r14
  40215e:	41 55                	push   %r13
  402160:	41 54                	push   %r12
  402162:	55                   	push   %rbp
  402163:	53                   	push   %rbx
  402164:	48 83 ec 28          	sub    $0x28,%rsp
  402168:	48 89 fb             	mov    %rdi,%rbx
  40216b:	48 89 14 24          	mov    %rdx,(%rsp)
  40216f:	49 89 f7             	mov    %rsi,%r15
  402172:	48 83 fa 01          	cmp    $0x1,%rdx
  402176:	0f 86 be 00 00 00    	jbe    40223a <rio_readlineb+0xe0>
  40217c:	4c 8d 6f 10          	lea    0x10(%rdi),%r13
  402180:	4d 89 ec             	mov    %r13,%r12
  402183:	41 be 01 00 00 00    	mov    $0x1,%r14d
  402189:	eb 38                	jmp    4021c3 <rio_readlineb+0x69>
  40218b:	ba 00 20 00 00       	mov    $0x2000,%edx
  402190:	4c 89 ee             	mov    %r13,%rsi
  402193:	8b 3b                	mov    (%rbx),%edi
  402195:	e8 76 ea ff ff       	callq  400c10 <read@plt>
  40219a:	89 43 04             	mov    %eax,0x4(%rbx)
  40219d:	85 c0                	test   %eax,%eax
  40219f:	79 16                	jns    4021b7 <rio_readlineb+0x5d>
  4021a1:	e8 5a eb ff ff       	callq  400d00 <__errno_location@plt>
  4021a6:	83 38 04             	cmpl   $0x4,(%rax)
  4021a9:	74 18                	je     4021c3 <rio_readlineb+0x69>
  4021ab:	48 c7 c2 ff ff ff ff 	mov    $0xffffffffffffffff,%rdx
  4021b2:	e9 a4 00 00 00       	jmpq   40225b <rio_readlineb+0x101>
  4021b7:	85 c0                	test   %eax,%eax
  4021b9:	0f 84 97 00 00 00    	je     402256 <rio_readlineb+0xfc>
  4021bf:	4c 89 63 08          	mov    %r12,0x8(%rbx)
  4021c3:	8b 6b 04             	mov    0x4(%rbx),%ebp
  4021c6:	85 ed                	test   %ebp,%ebp
  4021c8:	7e c1                	jle    40218b <rio_readlineb+0x31>
  4021ca:	85 ed                	test   %ebp,%ebp
  4021cc:	0f 85 8e 00 00 00    	jne    402260 <rio_readlineb+0x106>
  4021d2:	48 63 c5             	movslq %ebp,%rax
  4021d5:	48 89 44 24 08       	mov    %rax,0x8(%rsp)
  4021da:	48 8b 73 08          	mov    0x8(%rbx),%rsi
  4021de:	48 89 c2             	mov    %rax,%rdx
  4021e1:	48 8d 7c 24 1f       	lea    0x1f(%rsp),%rdi
  4021e6:	e8 d5 ea ff ff       	callq  400cc0 <memcpy@plt>
  4021eb:	48 8b 44 24 08       	mov    0x8(%rsp),%rax
  4021f0:	48 01 43 08          	add    %rax,0x8(%rbx)
  4021f4:	29 6b 04             	sub    %ebp,0x4(%rbx)
  4021f7:	89 c2                	mov    %eax,%edx
  4021f9:	83 f8 01             	cmp    $0x1,%eax
  4021fc:	75 15                	jne    402213 <rio_readlineb+0xb9>
  4021fe:	0f b6 44 24 1f       	movzbl 0x1f(%rsp),%eax
  402203:	41 88 07             	mov    %al,(%r15)
  402206:	49 83 c7 01          	add    $0x1,%r15
  40220a:	80 7c 24 1f 0a       	cmpb   $0xa,0x1f(%rsp)
  40220f:	75 1d                	jne    40222e <rio_readlineb+0xd4>
  402211:	eb 2d                	jmp    402240 <rio_readlineb+0xe6>
  402213:	4c 89 f1             	mov    %r14,%rcx
  402216:	48 c7 c0 ff ff ff ff 	mov    $0xffffffffffffffff,%rax
  40221d:	85 d2                	test   %edx,%edx
  40221f:	75 26                	jne    402247 <rio_readlineb+0xed>
  402221:	b8 00 00 00 00       	mov    $0x0,%eax
  402226:	48 83 f9 01          	cmp    $0x1,%rcx
  40222a:	75 14                	jne    402240 <rio_readlineb+0xe6>
  40222c:	eb 19                	jmp    402247 <rio_readlineb+0xed>
  40222e:	49 83 c6 01          	add    $0x1,%r14
  402232:	4c 39 34 24          	cmp    %r14,(%rsp)
  402236:	77 8b                	ja     4021c3 <rio_readlineb+0x69>
  402238:	eb 06                	jmp    402240 <rio_readlineb+0xe6>
  40223a:	41 be 01 00 00 00    	mov    $0x1,%r14d
  402240:	41 c6 07 00          	movb   $0x0,(%r15)
  402244:	4c 89 f0             	mov    %r14,%rax
  402247:	48 83 c4 28          	add    $0x28,%rsp
  40224b:	5b                   	pop    %rbx
  40224c:	5d                   	pop    %rbp
  40224d:	41 5c                	pop    %r12
  40224f:	41 5d                	pop    %r13
  402251:	41 5e                	pop    %r14
  402253:	41 5f                	pop    %r15
  402255:	c3                   	retq   
  402256:	ba 00 00 00 00       	mov    $0x0,%edx
  40225b:	4c 89 f1             	mov    %r14,%rcx
  40225e:	eb b6                	jmp    402216 <rio_readlineb+0xbc>
  402260:	48 8b 43 08          	mov    0x8(%rbx),%rax
  402264:	0f b6 00             	movzbl (%rax),%eax
  402267:	88 44 24 1f          	mov    %al,0x1f(%rsp)
  40226b:	48 83 43 08 01       	addq   $0x1,0x8(%rbx)
  402270:	83 6b 04 01          	subl   $0x1,0x4(%rbx)
  402274:	eb 88                	jmp    4021fe <rio_readlineb+0xa4>

0000000000402276 <submitr>:
  402276:	41 57                	push   %r15
  402278:	41 56                	push   %r14
  40227a:	41 55                	push   %r13
  40227c:	41 54                	push   %r12
  40227e:	55                   	push   %rbp
  40227f:	53                   	push   %rbx
  402280:	48 81 ec 68 a0 00 00 	sub    $0xa068,%rsp
  402287:	49 89 ff             	mov    %rdi,%r15
  40228a:	41 89 f4             	mov    %esi,%r12d
  40228d:	48 89 54 24 08       	mov    %rdx,0x8(%rsp)
  402292:	48 89 4c 24 10       	mov    %rcx,0x10(%rsp)
  402297:	4c 89 44 24 18       	mov    %r8,0x18(%rsp)
  40229c:	4c 89 cd             	mov    %r9,%rbp
  40229f:	4c 8b b4 24 a0 a0 00 	mov    0xa0a0(%rsp),%r14
  4022a6:	00 
  4022a7:	c7 84 24 3c 20 00 00 	movl   $0x0,0x203c(%rsp)
  4022ae:	00 00 00 00 
  4022b2:	ba 00 00 00 00       	mov    $0x0,%edx
  4022b7:	be 01 00 00 00       	mov    $0x1,%esi
  4022bc:	bf 02 00 00 00       	mov    $0x2,%edi
  4022c1:	e8 1a ea ff ff       	callq  400ce0 <socket@plt>
  4022c6:	41 89 c5             	mov    %eax,%r13d
  4022c9:	85 c0                	test   %eax,%eax
  4022cb:	79 19                	jns    4022e6 <submitr+0x70>
  4022cd:	be 10 32 40 00       	mov    $0x403210,%esi
  4022d2:	b9 26 00 00 00       	mov    $0x26,%ecx
  4022d7:	4c 89 f7             	mov    %r14,%rdi
  4022da:	f3 a4                	rep movsb %ds:(%rsi),%es:(%rdi)
  4022dc:	b8 ff ff ff ff       	mov    $0xffffffff,%eax
  4022e1:	e9 2e 05 00 00       	jmpq   402814 <submitr+0x59e>
  4022e6:	4c 89 ff             	mov    %r15,%rdi
  4022e9:	e8 c2 e8 ff ff       	callq  400bb0 <gethostbyname@plt>
  4022ee:	48 85 c0             	test   %rax,%rax
  4022f1:	75 21                	jne    402314 <submitr+0x9e>
  4022f3:	be 38 32 40 00       	mov    $0x403238,%esi
  4022f8:	b9 2f 00 00 00       	mov    $0x2f,%ecx
  4022fd:	4c 89 f7             	mov    %r14,%rdi
  402300:	f3 a4                	rep movsb %ds:(%rsi),%es:(%rdi)
  402302:	44 89 ef             	mov    %r13d,%edi
  402305:	e8 96 e8 ff ff       	callq  400ba0 <close@plt>
  40230a:	b8 ff ff ff ff       	mov    $0xffffffff,%eax
  40230f:	e9 00 05 00 00       	jmpq   402814 <submitr+0x59e>
  402314:	48 8d 9c 24 50 a0 00 	lea    0xa050(%rsp),%rbx
  40231b:	00 
  40231c:	48 c7 03 00 00 00 00 	movq   $0x0,(%rbx)
  402323:	48 c7 43 08 00 00 00 	movq   $0x0,0x8(%rbx)
  40232a:	00 
  40232b:	66 c7 84 24 50 a0 00 	movw   $0x2,0xa050(%rsp)
  402332:	00 02 00 
  402335:	48 63 50 14          	movslq 0x14(%rax),%rdx
  402339:	48 8d 73 04          	lea    0x4(%rbx),%rsi
  40233d:	48 8b 40 18          	mov    0x18(%rax),%rax
  402341:	48 8b 38             	mov    (%rax),%rdi
  402344:	e8 27 e9 ff ff       	callq  400c70 <bcopy@plt>
  402349:	66 41 c1 cc 08       	ror    $0x8,%r12w
  40234e:	66 44 89 a4 24 52 a0 	mov    %r12w,0xa052(%rsp)
  402355:	00 00 
  402357:	ba 10 00 00 00       	mov    $0x10,%edx
  40235c:	48 89 de             	mov    %rbx,%rsi
  40235f:	44 89 ef             	mov    %r13d,%edi
  402362:	e8 39 e9 ff ff       	callq  400ca0 <connect@plt>
  402367:	85 c0                	test   %eax,%eax
  402369:	79 21                	jns    40238c <submitr+0x116>
  40236b:	be 68 32 40 00       	mov    $0x403268,%esi
  402370:	b9 27 00 00 00       	mov    $0x27,%ecx
  402375:	4c 89 f7             	mov    %r14,%rdi
  402378:	f3 a4                	rep movsb %ds:(%rsi),%es:(%rdi)
  40237a:	44 89 ef             	mov    %r13d,%edi
  40237d:	e8 1e e8 ff ff       	callq  400ba0 <close@plt>
  402382:	b8 ff ff ff ff       	mov    $0xffffffff,%eax
  402387:	e9 88 04 00 00       	jmpq   402814 <submitr+0x59e>
  40238c:	48 c7 c2 ff ff ff ff 	mov    $0xffffffffffffffff,%rdx
  402393:	48 89 ef             	mov    %rbp,%rdi
  402396:	b8 00 00 00 00       	mov    $0x0,%eax
  40239b:	48 89 d1             	mov    %rdx,%rcx
  40239e:	f2 ae                	repnz scas %es:(%rdi),%al
  4023a0:	48 89 cb             	mov    %rcx,%rbx
  4023a3:	48 f7 d3             	not    %rbx
  4023a6:	48 8b 7c 24 08       	mov    0x8(%rsp),%rdi
  4023ab:	48 89 d1             	mov    %rdx,%rcx
  4023ae:	f2 ae                	repnz scas %es:(%rdi),%al
  4023b0:	48 89 ce             	mov    %rcx,%rsi
  4023b3:	48 8b 7c 24 10       	mov    0x10(%rsp),%rdi
  4023b8:	48 89 d1             	mov    %rdx,%rcx
  4023bb:	f2 ae                	repnz scas %es:(%rdi),%al
  4023bd:	49 89 c8             	mov    %rcx,%r8
  4023c0:	49 f7 d0             	not    %r8
  4023c3:	48 8b 7c 24 18       	mov    0x18(%rsp),%rdi
  4023c8:	48 89 d1             	mov    %rdx,%rcx
  4023cb:	f2 ae                	repnz scas %es:(%rdi),%al
  4023cd:	49 29 f0             	sub    %rsi,%r8
  4023d0:	49 29 c8             	sub    %rcx,%r8
  4023d3:	48 8d 5c 5b fd       	lea    -0x3(%rbx,%rbx,2),%rbx
  4023d8:	49 8d 44 18 7b       	lea    0x7b(%r8,%rbx,1),%rax
  4023dd:	48 3d 00 20 00 00    	cmp    $0x2000,%rax
  4023e3:	0f 86 81 00 00 00    	jbe    40246a <submitr+0x1f4>
  4023e9:	41 c7 06 45 72 72 6f 	movl   $0x6f727245,(%r14)
  4023f0:	41 c7 46 04 72 3a 20 	movl   $0x52203a72,0x4(%r14)
  4023f7:	52 
  4023f8:	41 c7 46 08 65 73 75 	movl   $0x6c757365,0x8(%r14)
  4023ff:	6c 
  402400:	41 c7 46 0c 74 20 73 	movl   $0x74732074,0xc(%r14)
  402407:	74 
  402408:	41 c7 46 10 72 69 6e 	movl   $0x676e6972,0x10(%r14)
  40240f:	67 
  402410:	41 c7 46 14 20 74 6f 	movl   $0x6f6f7420,0x14(%r14)
  402417:	6f 
  402418:	41 c7 46 18 20 6c 61 	movl   $0x72616c20,0x18(%r14)
  40241f:	72 
  402420:	41 c7 46 1c 67 65 2e 	movl   $0x202e6567,0x1c(%r14)
  402427:	20 
  402428:	41 c7 46 20 49 6e 63 	movl   $0x72636e49,0x20(%r14)
  40242f:	72 
  402430:	41 c7 46 24 65 61 73 	movl   $0x65736165,0x24(%r14)
  402437:	65 
  402438:	41 c7 46 28 20 53 55 	movl   $0x42555320,0x28(%r14)
  40243f:	42 
  402440:	41 c7 46 2c 4d 49 54 	movl   $0x5254494d,0x2c(%r14)
  402447:	52 
  402448:	41 c7 46 30 5f 4d 41 	movl   $0x58414d5f,0x30(%r14)
  40244f:	58 
  402450:	41 c7 46 34 42 55 46 	movl   $0x465542,0x34(%r14)
  402457:	00 
  402458:	44 89 ef             	mov    %r13d,%edi
  40245b:	e8 40 e7 ff ff       	callq  400ba0 <close@plt>
  402460:	b8 ff ff ff ff       	mov    $0xffffffff,%eax
  402465:	e9 aa 03 00 00       	jmpq   402814 <submitr+0x59e>
  40246a:	48 8d 94 24 40 40 00 	lea    0x4040(%rsp),%rdx
  402471:	00 
  402472:	b9 00 04 00 00       	mov    $0x400,%ecx
  402477:	b8 00 00 00 00       	mov    $0x0,%eax
  40247c:	48 89 d7             	mov    %rdx,%rdi
  40247f:	f3 48 ab             	rep stos %rax,%es:(%rdi)
  402482:	48 89 ef             	mov    %rbp,%rdi
  402485:	48 c7 c1 ff ff ff ff 	mov    $0xffffffffffffffff,%rcx
  40248c:	f2 ae                	repnz scas %es:(%rdi),%al
  40248e:	48 f7 d1             	not    %rcx
  402491:	83 e9 01             	sub    $0x1,%ecx
  402494:	0f 84 8c 03 00 00    	je     402826 <submitr+0x5b0>
  40249a:	48 89 d3             	mov    %rdx,%rbx
  40249d:	44 8d 61 ff          	lea    -0x1(%rcx),%r12d
  4024a1:	0f b6 45 00          	movzbl 0x0(%rbp),%eax
  4024a5:	3c 2a                	cmp    $0x2a,%al
  4024a7:	74 24                	je     4024cd <submitr+0x257>
  4024a9:	3c 2d                	cmp    $0x2d,%al
  4024ab:	74 20                	je     4024cd <submitr+0x257>
  4024ad:	3c 2e                	cmp    $0x2e,%al
  4024af:	74 1c                	je     4024cd <submitr+0x257>
  4024b1:	3c 5f                	cmp    $0x5f,%al
  4024b3:	74 18                	je     4024cd <submitr+0x257>
  4024b5:	8d 50 d0             	lea    -0x30(%rax),%edx
  4024b8:	80 fa 09             	cmp    $0x9,%dl
  4024bb:	76 10                	jbe    4024cd <submitr+0x257>
  4024bd:	8d 50 bf             	lea    -0x41(%rax),%edx
  4024c0:	80 fa 19             	cmp    $0x19,%dl
  4024c3:	76 08                	jbe    4024cd <submitr+0x257>
  4024c5:	8d 50 9f             	lea    -0x61(%rax),%edx
  4024c8:	80 fa 19             	cmp    $0x19,%dl
  4024cb:	77 08                	ja     4024d5 <submitr+0x25f>
  4024cd:	88 03                	mov    %al,(%rbx)
  4024cf:	48 83 c3 01          	add    $0x1,%rbx
  4024d3:	eb 4b                	jmp    402520 <submitr+0x2aa>
  4024d5:	3c 20                	cmp    $0x20,%al
  4024d7:	75 09                	jne    4024e2 <submitr+0x26c>
  4024d9:	c6 03 2b             	movb   $0x2b,(%rbx)
  4024dc:	48 83 c3 01          	add    $0x1,%rbx
  4024e0:	eb 3e                	jmp    402520 <submitr+0x2aa>
  4024e2:	8d 50 e0             	lea    -0x20(%rax),%edx
  4024e5:	80 fa 5f             	cmp    $0x5f,%dl
  4024e8:	76 04                	jbe    4024ee <submitr+0x278>
  4024ea:	3c 09                	cmp    $0x9,%al
  4024ec:	75 48                	jne    402536 <submitr+0x2c0>
  4024ee:	0f b6 d0             	movzbl %al,%edx
  4024f1:	be 28 34 40 00       	mov    $0x403428,%esi
  4024f6:	48 8d 7c 24 20       	lea    0x20(%rsp),%rdi
  4024fb:	b8 00 00 00 00       	mov    $0x0,%eax
  402500:	e8 7b e7 ff ff       	callq  400c80 <sprintf@plt>
  402505:	0f b6 44 24 20       	movzbl 0x20(%rsp),%eax
  40250a:	88 03                	mov    %al,(%rbx)
  40250c:	0f b6 44 24 21       	movzbl 0x21(%rsp),%eax
  402511:	88 43 01             	mov    %al,0x1(%rbx)
  402514:	0f b6 44 24 22       	movzbl 0x22(%rsp),%eax
  402519:	88 43 02             	mov    %al,0x2(%rbx)
  40251c:	48 83 c3 03          	add    $0x3,%rbx
  402520:	45 85 e4             	test   %r12d,%r12d
  402523:	0f 84 fd 02 00 00    	je     402826 <submitr+0x5b0>
  402529:	48 83 c5 01          	add    $0x1,%rbp
  40252d:	41 83 ec 01          	sub    $0x1,%r12d
  402531:	e9 6b ff ff ff       	jmpq   4024a1 <submitr+0x22b>
  402536:	be 90 32 40 00       	mov    $0x403290,%esi
  40253b:	b9 43 00 00 00       	mov    $0x43,%ecx
  402540:	4c 89 f7             	mov    %r14,%rdi
  402543:	f3 a4                	rep movsb %ds:(%rsi),%es:(%rdi)
  402545:	44 89 ef             	mov    %r13d,%edi
  402548:	e8 53 e6 ff ff       	callq  400ba0 <close@plt>
  40254d:	b8 ff ff ff ff       	mov    $0xffffffff,%eax
  402552:	e9 bd 02 00 00       	jmpq   402814 <submitr+0x59e>
  402557:	48 01 c5             	add    %rax,%rbp
  40255a:	48 89 da             	mov    %rbx,%rdx
  40255d:	48 89 ee             	mov    %rbp,%rsi
  402560:	44 89 ef             	mov    %r13d,%edi
  402563:	e8 e8 e7 ff ff       	callq  400d50 <write@plt>
  402568:	48 85 c0             	test   %rax,%rax
  40256b:	7f 0d                	jg     40257a <submitr+0x304>
  40256d:	e8 8e e7 ff ff       	callq  400d00 <__errno_location@plt>
  402572:	83 38 04             	cmpl   $0x4,(%rax)
  402575:	75 0d                	jne    402584 <submitr+0x30e>
  402577:	4c 89 f8             	mov    %r15,%rax
  40257a:	48 29 c3             	sub    %rax,%rbx
  40257d:	75 d8                	jne    402557 <submitr+0x2e1>
  40257f:	4d 85 e4             	test   %r12,%r12
  402582:	79 21                	jns    4025a5 <submitr+0x32f>
  402584:	be d8 32 40 00       	mov    $0x4032d8,%esi
  402589:	b9 33 00 00 00       	mov    $0x33,%ecx
  40258e:	4c 89 f7             	mov    %r14,%rdi
  402591:	f3 a4                	rep movsb %ds:(%rsi),%es:(%rdi)
  402593:	44 89 ef             	mov    %r13d,%edi
  402596:	e8 05 e6 ff ff       	callq  400ba0 <close@plt>
  40259b:	b8 ff ff ff ff       	mov    $0xffffffff,%eax
  4025a0:	e9 6f 02 00 00       	jmpq   402814 <submitr+0x59e>
  4025a5:	44 89 ac 24 40 80 00 	mov    %r13d,0x8040(%rsp)
  4025ac:	00 
  4025ad:	c7 84 24 44 80 00 00 	movl   $0x0,0x8044(%rsp)
  4025b4:	00 00 00 00 
  4025b8:	48 8d bc 24 40 80 00 	lea    0x8040(%rsp),%rdi
  4025bf:	00 
  4025c0:	48 8d 47 10          	lea    0x10(%rdi),%rax
  4025c4:	48 89 84 24 48 80 00 	mov    %rax,0x8048(%rsp)
  4025cb:	00 
  4025cc:	48 8d b4 24 40 60 00 	lea    0x6040(%rsp),%rsi
  4025d3:	00 
  4025d4:	ba 00 20 00 00       	mov    $0x2000,%edx
  4025d9:	e8 7c fb ff ff       	callq  40215a <rio_readlineb>
  4025de:	48 85 c0             	test   %rax,%rax
  4025e1:	7f 21                	jg     402604 <submitr+0x38e>
  4025e3:	be 10 33 40 00       	mov    $0x403310,%esi
  4025e8:	b9 3d 00 00 00       	mov    $0x3d,%ecx
  4025ed:	4c 89 f7             	mov    %r14,%rdi
  4025f0:	f3 a4                	rep movsb %ds:(%rsi),%es:(%rdi)
  4025f2:	44 89 ef             	mov    %r13d,%edi
  4025f5:	e8 a6 e5 ff ff       	callq  400ba0 <close@plt>
  4025fa:	b8 ff ff ff ff       	mov    $0xffffffff,%eax
  4025ff:	e9 10 02 00 00       	jmpq   402814 <submitr+0x59e>
  402604:	4c 8d bc 24 40 60 00 	lea    0x6040(%rsp),%r15
  40260b:	00 
  40260c:	48 8d 8c 24 3c 20 00 	lea    0x203c(%rsp),%rcx
  402613:	00 
  402614:	48 8d 94 24 40 20 00 	lea    0x2040(%rsp),%rdx
  40261b:	00 
  40261c:	4c 8d 44 24 30       	lea    0x30(%rsp),%r8
  402621:	be 2f 34 40 00       	mov    $0x40342f,%esi
  402626:	4c 89 ff             	mov    %r15,%rdi
  402629:	b8 00 00 00 00       	mov    $0x0,%eax
  40262e:	e8 9d e5 ff ff       	callq  400bd0 <__isoc99_sscanf@plt>
  402633:	48 8d 9c 24 40 60 00 	lea    0x6040(%rsp),%rbx
  40263a:	00 
  40263b:	bd 46 34 40 00       	mov    $0x403446,%ebp
  402640:	4c 8d a4 24 40 80 00 	lea    0x8040(%rsp),%r12
  402647:	00 
  402648:	e9 a2 00 00 00       	jmpq   4026ef <submitr+0x479>
  40264d:	ba 00 20 00 00       	mov    $0x2000,%edx
  402652:	48 89 de             	mov    %rbx,%rsi
  402655:	4c 89 e7             	mov    %r12,%rdi
  402658:	e8 fd fa ff ff       	callq  40215a <rio_readlineb>
  40265d:	48 85 c0             	test   %rax,%rax
  402660:	0f 8f 89 00 00 00    	jg     4026ef <submitr+0x479>
  402666:	41 c7 06 45 72 72 6f 	movl   $0x6f727245,(%r14)
  40266d:	41 c7 46 04 72 3a 20 	movl   $0x43203a72,0x4(%r14)
  402674:	43 
  402675:	41 c7 46 08 6c 69 65 	movl   $0x6e65696c,0x8(%r14)
  40267c:	6e 
  40267d:	41 c7 46 0c 74 20 75 	movl   $0x6e752074,0xc(%r14)
  402684:	6e 
  402685:	41 c7 46 10 61 62 6c 	movl   $0x656c6261,0x10(%r14)
  40268c:	65 
  40268d:	41 c7 46 14 20 74 6f 	movl   $0x206f7420,0x14(%r14)
  402694:	20 
  402695:	41 c7 46 18 72 65 61 	movl   $0x64616572,0x18(%r14)
  40269c:	64 
  40269d:	41 c7 46 1c 20 68 65 	movl   $0x61656820,0x1c(%r14)
  4026a4:	61 
  4026a5:	41 c7 46 20 64 65 72 	movl   $0x73726564,0x20(%r14)
  4026ac:	73 
  4026ad:	41 c7 46 24 20 66 72 	movl   $0x6f726620,0x24(%r14)
  4026b4:	6f 
  4026b5:	41 c7 46 28 6d 20 74 	movl   $0x6874206d,0x28(%r14)
  4026bc:	68 
  4026bd:	41 c7 46 2c 65 20 72 	movl   $0x65722065,0x2c(%r14)
  4026c4:	65 
  4026c5:	41 c7 46 30 73 75 6c 	movl   $0x746c7573,0x30(%r14)
  4026cc:	74 
  4026cd:	41 c7 46 34 20 73 65 	movl   $0x72657320,0x34(%r14)
  4026d4:	72 
  4026d5:	41 c7 46 38 76 65 72 	movl   $0x726576,0x38(%r14)
  4026dc:	00 
  4026dd:	44 89 ef             	mov    %r13d,%edi
  4026e0:	e8 bb e4 ff ff       	callq  400ba0 <close@plt>
  4026e5:	b8 ff ff ff ff       	mov    $0xffffffff,%eax
  4026ea:	e9 25 01 00 00       	jmpq   402814 <submitr+0x59e>
  4026ef:	0f b6 03             	movzbl (%rbx),%eax
  4026f2:	3a 45 00             	cmp    0x0(%rbp),%al
  4026f5:	0f 85 52 ff ff ff    	jne    40264d <submitr+0x3d7>
  4026fb:	0f b6 43 01          	movzbl 0x1(%rbx),%eax
  4026ff:	3a 45 01             	cmp    0x1(%rbp),%al
  402702:	0f 85 45 ff ff ff    	jne    40264d <submitr+0x3d7>
  402708:	0f b6 43 02          	movzbl 0x2(%rbx),%eax
  40270c:	3a 45 02             	cmp    0x2(%rbp),%al
  40270f:	0f 85 38 ff ff ff    	jne    40264d <submitr+0x3d7>
  402715:	48 8d b4 24 40 60 00 	lea    0x6040(%rsp),%rsi
  40271c:	00 
  40271d:	48 8d bc 24 40 80 00 	lea    0x8040(%rsp),%rdi
  402724:	00 
  402725:	ba 00 20 00 00       	mov    $0x2000,%edx
  40272a:	e8 2b fa ff ff       	callq  40215a <rio_readlineb>
  40272f:	48 85 c0             	test   %rax,%rax
  402732:	7f 21                	jg     402755 <submitr+0x4df>
  402734:	be 50 33 40 00       	mov    $0x403350,%esi
  402739:	b9 3f 00 00 00       	mov    $0x3f,%ecx
  40273e:	4c 89 f7             	mov    %r14,%rdi
  402741:	f3 a4                	rep movsb %ds:(%rsi),%es:(%rdi)
  402743:	44 89 ef             	mov    %r13d,%edi
  402746:	e8 55 e4 ff ff       	callq  400ba0 <close@plt>
  40274b:	b8 ff ff ff ff       	mov    $0xffffffff,%eax
  402750:	e9 bf 00 00 00       	jmpq   402814 <submitr+0x59e>
  402755:	8b 94 24 3c 20 00 00 	mov    0x203c(%rsp),%edx
  40275c:	81 fa c8 00 00 00    	cmp    $0xc8,%edx
  402762:	74 29                	je     40278d <submitr+0x517>
  402764:	48 8d 4c 24 30       	lea    0x30(%rsp),%rcx
  402769:	be 90 33 40 00       	mov    $0x403390,%esi
  40276e:	4c 89 f7             	mov    %r14,%rdi
  402771:	b8 00 00 00 00       	mov    $0x0,%eax
  402776:	e8 05 e5 ff ff       	callq  400c80 <sprintf@plt>
  40277b:	44 89 ef             	mov    %r13d,%edi
  40277e:	e8 1d e4 ff ff       	callq  400ba0 <close@plt>
  402783:	b8 ff ff ff ff       	mov    $0xffffffff,%eax
  402788:	e9 87 00 00 00       	jmpq   402814 <submitr+0x59e>
  40278d:	4c 89 fe             	mov    %r15,%rsi
  402790:	4c 89 f7             	mov    %r14,%rdi
  402793:	e8 78 e5 ff ff       	callq  400d10 <strcpy@plt>
  402798:	44 89 ef             	mov    %r13d,%edi
  40279b:	e8 00 e4 ff ff       	callq  400ba0 <close@plt>
  4027a0:	4c 89 f2             	mov    %r14,%rdx
  4027a3:	41 0f b6 06          	movzbl (%r14),%eax
  4027a7:	b9 40 34 40 00       	mov    $0x403440,%ecx
  4027ac:	0f b6 19             	movzbl (%rcx),%ebx
  4027af:	39 d8                	cmp    %ebx,%eax
  4027b1:	75 1e                	jne    4027d1 <submitr+0x55b>
  4027b3:	41 0f b6 5e 01       	movzbl 0x1(%r14),%ebx
  4027b8:	3a 59 01             	cmp    0x1(%rcx),%bl
  4027bb:	75 14                	jne    4027d1 <submitr+0x55b>
  4027bd:	41 0f b6 5e 02       	movzbl 0x2(%r14),%ebx
  4027c2:	3a 59 02             	cmp    0x2(%rcx),%bl
  4027c5:	75 0a                	jne    4027d1 <submitr+0x55b>
  4027c7:	41 0f b6 5e 03       	movzbl 0x3(%r14),%ebx
  4027cc:	3a 59 03             	cmp    0x3(%rcx),%bl
  4027cf:	74 37                	je     402808 <submitr+0x592>
  4027d1:	4c 89 f6             	mov    %r14,%rsi
  4027d4:	bf 44 34 40 00       	mov    $0x403444,%edi
  4027d9:	b9 05 00 00 00       	mov    $0x5,%ecx
  4027de:	f3 a6                	repz cmpsb %es:(%rdi),%ds:(%rsi)
  4027e0:	0f 97 c3             	seta   %bl
  4027e3:	0f 92 c1             	setb   %cl
  4027e6:	38 cb                	cmp    %cl,%bl
  4027e8:	74 1e                	je     402808 <submitr+0x592>
  4027ea:	b9 49 34 40 00       	mov    $0x403449,%ecx
  4027ef:	0f b6 19             	movzbl (%rcx),%ebx
  4027f2:	39 d8                	cmp    %ebx,%eax
  4027f4:	75 19                	jne    40280f <submitr+0x599>
  4027f6:	0f b6 42 01          	movzbl 0x1(%rdx),%eax
  4027fa:	3a 41 01             	cmp    0x1(%rcx),%al
  4027fd:	75 10                	jne    40280f <submitr+0x599>
  4027ff:	0f b6 42 02          	movzbl 0x2(%rdx),%eax
  402803:	3a 41 02             	cmp    0x2(%rcx),%al
  402806:	75 07                	jne    40280f <submitr+0x599>
  402808:	b8 00 00 00 00       	mov    $0x0,%eax
  40280d:	eb 05                	jmp    402814 <submitr+0x59e>
  40280f:	b8 ff ff ff ff       	mov    $0xffffffff,%eax
  402814:	48 81 c4 68 a0 00 00 	add    $0xa068,%rsp
  40281b:	5b                   	pop    %rbx
  40281c:	5d                   	pop    %rbp
  40281d:	41 5c                	pop    %r12
  40281f:	41 5d                	pop    %r13
  402821:	41 5e                	pop    %r14
  402823:	41 5f                	pop    %r15
  402825:	c3                   	retq   
  402826:	48 8d 9c 24 40 60 00 	lea    0x6040(%rsp),%rbx
  40282d:	00 
  40282e:	4d 89 f9             	mov    %r15,%r9
  402831:	4c 8d 84 24 40 40 00 	lea    0x4040(%rsp),%r8
  402838:	00 
  402839:	48 8b 4c 24 08       	mov    0x8(%rsp),%rcx
  40283e:	48 8b 54 24 10       	mov    0x10(%rsp),%rdx
  402843:	be c0 33 40 00       	mov    $0x4033c0,%esi
  402848:	48 89 df             	mov    %rbx,%rdi
  40284b:	b8 00 00 00 00       	mov    $0x0,%eax
  402850:	e8 2b e4 ff ff       	callq  400c80 <sprintf@plt>
  402855:	48 89 df             	mov    %rbx,%rdi
  402858:	b8 00 00 00 00       	mov    $0x0,%eax
  40285d:	48 c7 c1 ff ff ff ff 	mov    $0xffffffffffffffff,%rcx
  402864:	f2 ae                	repnz scas %es:(%rdi),%al
  402866:	48 f7 d1             	not    %rcx
  402869:	49 89 cc             	mov    %rcx,%r12
  40286c:	49 83 ec 01          	sub    $0x1,%r12
  402870:	0f 84 2f fd ff ff    	je     4025a5 <submitr+0x32f>
  402876:	4c 89 e3             	mov    %r12,%rbx
  402879:	48 8d ac 24 40 60 00 	lea    0x6040(%rsp),%rbp
  402880:	00 
  402881:	41 bf 00 00 00 00    	mov    $0x0,%r15d
  402887:	e9 ce fc ff ff       	jmpq   40255a <submitr+0x2e4>

000000000040288c <driver_post>:
  40288c:	53                   	push   %rbx
  40288d:	48 83 ec 10          	sub    $0x10,%rsp
  402891:	4c 89 cb             	mov    %r9,%rbx
  402894:	45 85 c0             	test   %r8d,%r8d
  402897:	74 22                	je     4028bb <driver_post+0x2f>
  402899:	48 89 ce             	mov    %rcx,%rsi
  40289c:	bf 4c 34 40 00       	mov    $0x40344c,%edi
  4028a1:	b8 00 00 00 00       	mov    $0x0,%eax
  4028a6:	e8 d5 e2 ff ff       	callq  400b80 <printf@plt>
  4028ab:	66 c7 03 4f 4b       	movw   $0x4b4f,(%rbx)
  4028b0:	c6 43 02 00          	movb   $0x0,0x2(%rbx)
  4028b4:	b8 00 00 00 00       	mov    $0x0,%eax
  4028b9:	eb 39                	jmp    4028f4 <driver_post+0x68>
  4028bb:	48 85 ff             	test   %rdi,%rdi
  4028be:	74 26                	je     4028e6 <driver_post+0x5a>
  4028c0:	80 3f 00             	cmpb   $0x0,(%rdi)
  4028c3:	74 21                	je     4028e6 <driver_post+0x5a>
  4028c5:	4c 89 0c 24          	mov    %r9,(%rsp)
  4028c9:	49 89 c9             	mov    %rcx,%r9
  4028cc:	49 89 d0             	mov    %rdx,%r8
  4028cf:	48 89 f9             	mov    %rdi,%rcx
  4028d2:	48 89 f2             	mov    %rsi,%rdx
  4028d5:	be 9a 3c 00 00       	mov    $0x3c9a,%esi
  4028da:	bf d0 2d 40 00       	mov    $0x402dd0,%edi
  4028df:	e8 92 f9 ff ff       	callq  402276 <submitr>
  4028e4:	eb 0e                	jmp    4028f4 <driver_post+0x68>
  4028e6:	66 c7 03 4f 4b       	movw   $0x4b4f,(%rbx)
  4028eb:	c6 43 02 00          	movb   $0x0,0x2(%rbx)
  4028ef:	b8 00 00 00 00       	mov    $0x0,%eax
  4028f4:	48 83 c4 10          	add    $0x10,%rsp
  4028f8:	5b                   	pop    %rbx
  4028f9:	c3                   	retq   

00000000004028fa <sigalrm_handler>:
  4028fa:	48 83 ec 08          	sub    $0x8,%rsp
  4028fe:	ba 00 00 00 00       	mov    $0x0,%edx
  402903:	be 00 34 40 00       	mov    $0x403400,%esi
  402908:	48 8b 3d 99 1d 20 00 	mov    0x201d99(%rip),%rdi        # 6046a8 <stderr@@GLIBC_2.2.5>
  40290f:	b8 00 00 00 00       	mov    $0x0,%eax
  402914:	e8 27 e4 ff ff       	callq  400d40 <fprintf@plt>
  402919:	bf 01 00 00 00       	mov    $0x1,%edi
  40291e:	e8 bd e2 ff ff       	callq  400be0 <exit@plt>
  402923:	90                   	nop

0000000000402924 <check>:
  402924:	89 f8                	mov    %edi,%eax
  402926:	c1 e8 1c             	shr    $0x1c,%eax
  402929:	85 c0                	test   %eax,%eax
  40292b:	74 27                	je     402954 <check+0x30>
  40292d:	40 80 ff 0a          	cmp    $0xa,%dil
  402931:	74 21                	je     402954 <check+0x30>
  402933:	48 89 fa             	mov    %rdi,%rdx
  402936:	0f b6 c6             	movzbl %dh,%eax
  402939:	83 f8 0a             	cmp    $0xa,%eax
  40293c:	74 16                	je     402954 <check+0x30>
  40293e:	89 f8                	mov    %edi,%eax
  402940:	c1 e8 10             	shr    $0x10,%eax
  402943:	3c 0a                	cmp    $0xa,%al
  402945:	74 0d                	je     402954 <check+0x30>
  402947:	c1 ef 18             	shr    $0x18,%edi
  40294a:	83 ff 0a             	cmp    $0xa,%edi
  40294d:	0f 95 c0             	setne  %al
  402950:	0f b6 c0             	movzbl %al,%eax
  402953:	c3                   	retq   
  402954:	b8 00 00 00 00       	mov    $0x0,%eax
  402959:	c3                   	retq   

000000000040295a <gencookie>:
  40295a:	53                   	push   %rbx
  40295b:	83 c7 01             	add    $0x1,%edi
  40295e:	e8 ed e2 ff ff       	callq  400c50 <srandom@plt>
  402963:	e8 c8 e3 ff ff       	callq  400d30 <random@plt>
  402968:	89 c3                	mov    %eax,%ebx
  40296a:	89 c7                	mov    %eax,%edi
  40296c:	e8 b3 ff ff ff       	callq  402924 <check>
  402971:	85 c0                	test   %eax,%eax
  402973:	74 ee                	je     402963 <gencookie+0x9>
  402975:	89 d8                	mov    %ebx,%eax
  402977:	5b                   	pop    %rbx
  402978:	c3                   	retq   
  402979:	90                   	nop
  40297a:	90                   	nop
  40297b:	90                   	nop
  40297c:	90                   	nop
  40297d:	90                   	nop
  40297e:	90                   	nop
  40297f:	90                   	nop

0000000000402980 <__libc_csu_fini>:
  402980:	f3 c3                	repz retq 
  402982:	66 66 66 66 66 2e 0f 	data32 data32 data32 data32 nopw %cs:0x0(%rax,%rax,1)
  402989:	1f 84 00 00 00 00 00 

0000000000402990 <__libc_csu_init>:
  402990:	48 89 6c 24 d8       	mov    %rbp,-0x28(%rsp)
  402995:	4c 89 64 24 e0       	mov    %r12,-0x20(%rsp)
  40299a:	48 8d 2d 5f 16 20 00 	lea    0x20165f(%rip),%rbp        # 604000 <__CTOR_LIST__>
  4029a1:	4c 8d 25 58 16 20 00 	lea    0x201658(%rip),%r12        # 604000 <__CTOR_LIST__>
  4029a8:	4c 89 6c 24 e8       	mov    %r13,-0x18(%rsp)
  4029ad:	4c 89 74 24 f0       	mov    %r14,-0x10(%rsp)
  4029b2:	4c 89 7c 24 f8       	mov    %r15,-0x8(%rsp)
  4029b7:	48 89 5c 24 d0       	mov    %rbx,-0x30(%rsp)
  4029bc:	48 83 ec 38          	sub    $0x38,%rsp
  4029c0:	4c 29 e5             	sub    %r12,%rbp
  4029c3:	41 89 fd             	mov    %edi,%r13d
  4029c6:	49 89 f6             	mov    %rsi,%r14
  4029c9:	48 c1 fd 03          	sar    $0x3,%rbp
  4029cd:	49 89 d7             	mov    %rdx,%r15
  4029d0:	e8 83 e1 ff ff       	callq  400b58 <_init>
  4029d5:	48 85 ed             	test   %rbp,%rbp
  4029d8:	74 1c                	je     4029f6 <__libc_csu_init+0x66>
  4029da:	31 db                	xor    %ebx,%ebx
  4029dc:	0f 1f 40 00          	nopl   0x0(%rax)
  4029e0:	4c 89 fa             	mov    %r15,%rdx
  4029e3:	4c 89 f6             	mov    %r14,%rsi
  4029e6:	44 89 ef             	mov    %r13d,%edi
  4029e9:	41 ff 14 dc          	callq  *(%r12,%rbx,8)
  4029ed:	48 83 c3 01          	add    $0x1,%rbx
  4029f1:	48 39 eb             	cmp    %rbp,%rbx
  4029f4:	72 ea                	jb     4029e0 <__libc_csu_init+0x50>
  4029f6:	48 8b 5c 24 08       	mov    0x8(%rsp),%rbx
  4029fb:	48 8b 6c 24 10       	mov    0x10(%rsp),%rbp
  402a00:	4c 8b 64 24 18       	mov    0x18(%rsp),%r12
  402a05:	4c 8b 6c 24 20       	mov    0x20(%rsp),%r13
  402a0a:	4c 8b 74 24 28       	mov    0x28(%rsp),%r14
  402a0f:	4c 8b 7c 24 30       	mov    0x30(%rsp),%r15
  402a14:	48 83 c4 38          	add    $0x38,%rsp
  402a18:	c3                   	retq   
  402a19:	90                   	nop
  402a1a:	90                   	nop
  402a1b:	90                   	nop
  402a1c:	90                   	nop
  402a1d:	90                   	nop
  402a1e:	90                   	nop
  402a1f:	90                   	nop

0000000000402a20 <__do_global_ctors_aux>:
  402a20:	55                   	push   %rbp
  402a21:	48 89 e5             	mov    %rsp,%rbp
  402a24:	53                   	push   %rbx
  402a25:	48 83 ec 08          	sub    $0x8,%rsp
  402a29:	48 8b 05 d0 15 20 00 	mov    0x2015d0(%rip),%rax        # 604000 <__CTOR_LIST__>
  402a30:	48 83 f8 ff          	cmp    $0xffffffffffffffff,%rax
  402a34:	74 19                	je     402a4f <__do_global_ctors_aux+0x2f>
  402a36:	bb 00 40 60 00       	mov    $0x604000,%ebx
  402a3b:	0f 1f 44 00 00       	nopl   0x0(%rax,%rax,1)
  402a40:	48 83 eb 08          	sub    $0x8,%rbx
  402a44:	ff d0                	callq  *%rax
  402a46:	48 8b 03             	mov    (%rbx),%rax
  402a49:	48 83 f8 ff          	cmp    $0xffffffffffffffff,%rax
  402a4d:	75 f1                	jne    402a40 <__do_global_ctors_aux+0x20>
  402a4f:	48 83 c4 08          	add    $0x8,%rsp
  402a53:	5b                   	pop    %rbx
  402a54:	c9                   	leaveq 
  402a55:	c3                   	retq   
  402a56:	90                   	nop
  402a57:	90                   	nop

Disassembly of section .fini:

0000000000402a58 <_fini>:
  402a58:	48 83 ec 08          	sub    $0x8,%rsp
  402a5c:	e8 7f e3 ff ff       	callq  400de0 <__do_global_dtors_aux>
  402a61:	48 83 c4 08          	add    $0x8,%rsp
  402a65:	c3                   	retq   
